ARM GAS  C:\Users\GCRIST~1\AppData\Local\Temp\ccwqLU3s.s 			page 1


   1              		.syntax unified
   2              		.cpu cortex-m0plus
   3              		.fpu softvfp
   4              		.eabi_attribute 20, 1
   5              		.eabi_attribute 21, 1
   6              		.eabi_attribute 23, 3
   7              		.eabi_attribute 24, 1
   8              		.eabi_attribute 25, 1
   9              		.eabi_attribute 26, 1
  10              		.eabi_attribute 30, 1
  11              		.eabi_attribute 34, 0
  12              		.eabi_attribute 18, 4
  13              		.thumb
  14              		.syntax unified
  15              		.file	"main.c"
  16              		.text
  17              	.Ltext0:
  18              		.cfi_sections	.debug_frame
  19              		.section	.text.init,"ax",%progbits
  20              		.align	2
  21              		.global	init
  22              		.code	16
  23              		.thumb_func
  24              		.type	init, %function
  25              	init:
  26              	.LFB35:
  27              		.file 1 "main.c"
   1:main.c        **** /* ========================================
   2:main.c        ****  *
   3:main.c        ****  * Copyright YOUR COMPANY, THE YEAR
   4:main.c        ****  * All Rights Reserved
   5:main.c        ****  * UNPUBLISHED, LICENSED SOFTWARE.
   6:main.c        ****  *
   7:main.c        ****  * CONFIDENTIAL AND PROPRIETARY INFORMATION
   8:main.c        ****  * WHICH IS THE PROPERTY OF your company.
   9:main.c        ****  *
  10:main.c        ****  * ========================================
  11:main.c        **** */
  12:main.c        **** #include "project.h"
  13:main.c        **** #include <unistd.h>
  14:main.c        **** #include <stdio.h>
  15:main.c        **** #define BUFFER_SIZE 100u
  16:main.c        **** 
  17:main.c        **** void init(void);
  18:main.c        **** void pollUart(void);
  19:main.c        **** 
  20:main.c        **** 
  21:main.c        **** uint8 ch;
  22:main.c        **** uint8 rxData[BUFFER_SIZE];
  23:main.c        **** uint8 rxDataIndex = 0u;
  24:main.c        **** uint8 *command;
  25:main.c        **** //int32 temp = 0u;
  26:main.c        **** 
  27:main.c        **** int main(void)
  28:main.c        **** {
  29:main.c        ****     
  30:main.c        ****     /* Initialization */
ARM GAS  C:\Users\GCRIST~1\AppData\Local\Temp\ccwqLU3s.s 			page 2


  31:main.c        ****     init();
  32:main.c        ****     
  33:main.c        ****     /* Transmit String through UART TX Line */
  34:main.c        ****     UART_PC_UartPutString("CY8CKIT-041 USB-UART");
  35:main.c        ****     
  36:main.c        ****     for (;;)
  37:main.c        ****     {
  38:main.c        ****            
  39:main.c        ****        pollUart();
  40:main.c        ****     }
  41:main.c        **** }
  42:main.c        **** 
  43:main.c        **** 
  44:main.c        **** void init (void)
  45:main.c        **** {
  28              		.loc 1 45 0
  29              		.cfi_startproc
  30              		@ args = 0, pretend = 0, frame = 0
  31              		@ frame_needed = 0, uses_anonymous_args = 0
  32 0000 10B5     		push	{r4, lr}
  33              		.cfi_def_cfa_offset 8
  34              		.cfi_offset 4, -8
  35              		.cfi_offset 14, -4
  46:main.c        ****     
  47:main.c        ****     /* Init UART */
  48:main.c        ****     UART_PC_Start();
  36              		.loc 1 48 0
  37 0002 FFF7FEFF 		bl	UART_PC_Start
  38              	.LVL0:
  49:main.c        ****     
  50:main.c        ****     PGA_Start();
  39              		.loc 1 50 0
  40 0006 FFF7FEFF 		bl	PGA_Start
  41              	.LVL1:
  51:main.c        ****     
  52:main.c        ****     ADC_Temp_Start();
  42              		.loc 1 52 0
  43 000a FFF7FEFF 		bl	ADC_Temp_Start
  44              	.LVL2:
  53:main.c        ****     ADC_Temp_StartConvert();
  45              		.loc 1 53 0
  46 000e FFF7FEFF 		bl	ADC_Temp_StartConvert
  47              	.LVL3:
  54:main.c        ****     
  55:main.c        **** }
  48              		.loc 1 55 0
  49              		@ sp needed
  50 0012 10BD     		pop	{r4, pc}
  51              		.cfi_endproc
  52              	.LFE35:
  53              		.size	init, .-init
  54              		.section	.text.pollUart,"ax",%progbits
  55              		.align	2
  56              		.global	pollUart
  57              		.code	16
  58              		.thumb_func
  59              		.type	pollUart, %function
ARM GAS  C:\Users\GCRIST~1\AppData\Local\Temp\ccwqLU3s.s 			page 3


  60              	pollUart:
  61              	.LFB36:
  56:main.c        **** 
  57:main.c        **** void pollUart(void)
  58:main.c        **** {
  62              		.loc 1 58 0
  63              		.cfi_startproc
  64              		@ args = 0, pretend = 0, frame = 16
  65              		@ frame_needed = 0, uses_anonymous_args = 0
  66 0000 10B5     		push	{r4, lr}
  67              		.cfi_def_cfa_offset 8
  68              		.cfi_offset 4, -8
  69              		.cfi_offset 14, -4
  70 0002 84B0     		sub	sp, sp, #16
  71              		.cfi_def_cfa_offset 24
  72              	.LVL4:
  59:main.c        ****     int temp = 0;
  60:main.c        ****     int voltage = 0;
  61:main.c        ****     char str[12];
  62:main.c        ****      /* Get received character or zero if nothing has been received yet */
  63:main.c        ****         ch = UART_PC_UartGetChar();
  73              		.loc 1 63 0
  74 0004 FFF7FEFF 		bl	UART_PC_UartGetChar
  75              	.LVL5:
  76 0008 C0B2     		uxtb	r0, r0
  77 000a 1A4B     		ldr	r3, .L7
  78 000c 1870     		strb	r0, [r3]
  64:main.c        ****         if (0u != ch)
  79              		.loc 1 64 0
  80 000e 0028     		cmp	r0, #0
  81 0010 2DD0     		beq	.L2
  65:main.c        ****         {
  66:main.c        ****                         
  67:main.c        ****             /* Store the last received char */
  68:main.c        ****             rxData[rxDataIndex] = ch;
  82              		.loc 1 68 0
  83 0012 194B     		ldr	r3, .L7+4
  84 0014 1B78     		ldrb	r3, [r3]
  85 0016 194A     		ldr	r2, .L7+8
  86 0018 D054     		strb	r0, [r2, r3]
  69:main.c        ****                         
  70:main.c        ****             if (ch == '\r')
  87              		.loc 1 70 0
  88 001a 0D28     		cmp	r0, #13
  89 001c 23D1     		bne	.L4
  71:main.c        ****             {  
  72:main.c        ****                 /* Insert the string terminator character */
  73:main.c        ****                rxData[rxDataIndex] = '\0'; 
  90              		.loc 1 73 0
  91 001e 1000     		movs	r0, r2
  92 0020 0024     		movs	r4, #0
  93 0022 D454     		strb	r4, [r2, r3]
  74:main.c        **** 
  75:main.c        ****                /* Point to buffer */
  76:main.c        ****                command = rxData;
  94              		.loc 1 76 0
  95 0024 164B     		ldr	r3, .L7+12
ARM GAS  C:\Users\GCRIST~1\AppData\Local\Temp\ccwqLU3s.s 			page 4


  96 0026 1A60     		str	r2, [r3]
  77:main.c        ****                UART_PC_UartPutString((const char*) command);
  97              		.loc 1 77 0
  98 0028 FFF7FEFF 		bl	UART_PC_UartPutString
  99              	.LVL6:
  78:main.c        ****                 
  79:main.c        ****               voltage=ADC_Temp_GetResult32(0);
 100              		.loc 1 79 0
 101 002c 0020     		movs	r0, #0
 102 002e FFF7FEFF 		bl	ADC_Temp_GetResult32
 103              	.LVL7:
  80:main.c        ****               temp=Thermocouple_1_GetTemperature(voltage);
 104              		.loc 1 80 0
 105 0032 FFF7FEFF 		bl	Thermocouple_1_GetTemperature
 106              	.LVL8:
 107 0036 0200     		movs	r2, r0
 108              	.LVL9:
  81:main.c        ****               sprintf(str, "%d", (int)temp);
 109              		.loc 1 81 0
 110 0038 1249     		ldr	r1, .L7+16
 111 003a 01A8     		add	r0, sp, #4
 112              	.LVL10:
 113 003c FFF7FEFF 		bl	sprintf
 114              	.LVL11:
  82:main.c        ****             
  83:main.c        ****             
  84:main.c        ****               UART_PC_UartPutString(str);
 115              		.loc 1 84 0
 116 0040 01A8     		add	r0, sp, #4
 117 0042 FFF7FEFF 		bl	UART_PC_UartPutString
 118              	.LVL12:
  85:main.c        ****             
  86:main.c        ****             
  87:main.c        ****                 /* Clear buffer and index */
  88:main.c        ****                 for (rxDataIndex=0; rxDataIndex < BUFFER_SIZE; rxDataIndex++)
 119              		.loc 1 88 0
 120 0046 0C4B     		ldr	r3, .L7+4
 121 0048 1C70     		strb	r4, [r3]
 122 004a 05E0     		b	.L5
 123              	.L6:
  89:main.c        ****                 {
  90:main.c        ****                     rxData[rxDataIndex] = 0u;
 124              		.loc 1 90 0 discriminator 3
 125 004c 0021     		movs	r1, #0
 126 004e 0B4A     		ldr	r2, .L7+8
 127 0050 D154     		strb	r1, [r2, r3]
  88:main.c        ****                 {
 128              		.loc 1 88 0 discriminator 3
 129 0052 0133     		adds	r3, r3, #1
 130 0054 084A     		ldr	r2, .L7+4
 131 0056 1370     		strb	r3, [r2]
 132              	.L5:
  88:main.c        ****                 {
 133              		.loc 1 88 0 is_stmt 0 discriminator 1
 134 0058 074B     		ldr	r3, .L7+4
 135 005a 1B78     		ldrb	r3, [r3]
 136 005c 632B     		cmp	r3, #99
ARM GAS  C:\Users\GCRIST~1\AppData\Local\Temp\ccwqLU3s.s 			page 5


 137 005e F5D9     		bls	.L6
  91:main.c        ****                 }               
  92:main.c        ****                 
  93:main.c        ****                 rxDataIndex = -1;
 138              		.loc 1 93 0 is_stmt 1
 139 0060 FF22     		movs	r2, #255
 140 0062 054B     		ldr	r3, .L7+4
 141 0064 1A70     		strb	r2, [r3]
 142              	.L4:
  94:main.c        ****                                 
  95:main.c        ****             }
  96:main.c        ****             
  97:main.c        ****             rxDataIndex++;
 143              		.loc 1 97 0
 144 0066 044A     		ldr	r2, .L7+4
 145 0068 1378     		ldrb	r3, [r2]
 146 006a 0133     		adds	r3, r3, #1
 147 006c 1370     		strb	r3, [r2]
 148              	.L2:
  98:main.c        ****             
  99:main.c        ****         }
 100:main.c        **** }
 149              		.loc 1 100 0
 150 006e 04B0     		add	sp, sp, #16
 151              		@ sp needed
 152 0070 10BD     		pop	{r4, pc}
 153              	.L8:
 154 0072 C046     		.align	2
 155              	.L7:
 156 0074 00000000 		.word	ch
 157 0078 00000000 		.word	.LANCHOR0
 158 007c 00000000 		.word	rxData
 159 0080 00000000 		.word	command
 160 0084 00000000 		.word	.LC4
 161              		.cfi_endproc
 162              	.LFE36:
 163              		.size	pollUart, .-pollUart
 164              		.section	.text.main,"ax",%progbits
 165              		.align	2
 166              		.global	main
 167              		.code	16
 168              		.thumb_func
 169              		.type	main, %function
 170              	main:
 171              	.LFB34:
  28:main.c        ****     
 172              		.loc 1 28 0
 173              		.cfi_startproc
 174              		@ Volatile: function does not return.
 175              		@ args = 0, pretend = 0, frame = 0
 176              		@ frame_needed = 0, uses_anonymous_args = 0
 177 0000 10B5     		push	{r4, lr}
 178              		.cfi_def_cfa_offset 8
 179              		.cfi_offset 4, -8
 180              		.cfi_offset 14, -4
  31:main.c        ****     
 181              		.loc 1 31 0
ARM GAS  C:\Users\GCRIST~1\AppData\Local\Temp\ccwqLU3s.s 			page 6


 182 0002 FFF7FEFF 		bl	init
 183              	.LVL13:
  34:main.c        ****     
 184              		.loc 1 34 0
 185 0006 0348     		ldr	r0, .L11
 186 0008 FFF7FEFF 		bl	UART_PC_UartPutString
 187              	.LVL14:
 188              	.L10:
  39:main.c        ****     }
 189              		.loc 1 39 0 discriminator 1
 190 000c FFF7FEFF 		bl	pollUart
 191              	.LVL15:
 192 0010 FCE7     		b	.L10
 193              	.L12:
 194 0012 C046     		.align	2
 195              	.L11:
 196 0014 04000000 		.word	.LC6
 197              		.cfi_endproc
 198              	.LFE34:
 199              		.size	main, .-main
 200              		.section	.text.getTemp,"ax",%progbits
 201              		.align	2
 202              		.global	getTemp
 203              		.code	16
 204              		.thumb_func
 205              		.type	getTemp, %function
 206              	getTemp:
 207              	.LFB37:
 101:main.c        **** 
 102:main.c        **** void getTemp(void)
 103:main.c        **** {
 208              		.loc 1 103 0
 209              		.cfi_startproc
 210              		@ args = 0, pretend = 0, frame = 0
 211              		@ frame_needed = 0, uses_anonymous_args = 0
 212              		@ link register save eliminated.
 104:main.c        ****     
 105:main.c        **** }
 213              		.loc 1 105 0
 214              		@ sp needed
 215 0000 7047     		bx	lr
 216              		.cfi_endproc
 217              	.LFE37:
 218              		.size	getTemp, .-getTemp
 219              		.comm	command,4,4
 220              		.global	rxDataIndex
 221              		.comm	rxData,100,4
 222              		.comm	ch,1,1
 223 0002 C046     		.section	.rodata.str1.4,"aMS",%progbits,1
 224              		.align	2
 225              	.LC4:
 226 0000 256400   		.ascii	"%d\000"
 227 0003 00       		.space	1
 228              	.LC6:
 229 0004 43593843 		.ascii	"CY8CKIT-041 USB-UART\000"
 229      4B49542D 
 229      30343120 
ARM GAS  C:\Users\GCRIST~1\AppData\Local\Temp\ccwqLU3s.s 			page 7


 229      5553422D 
 229      55415254 
 230              		.bss
 231              		.set	.LANCHOR0,. + 0
 232              		.type	rxDataIndex, %object
 233              		.size	rxDataIndex, 1
 234              	rxDataIndex:
 235 0000 00       		.space	1
 236              		.text
 237              	.Letext0:
 238              		.file 2 "Generated_Source\\PSoC4/cytypes.h"
 239              		.file 3 "Generated_Source\\PSoC4/UART_PC.h"
 240              		.file 4 "Generated_Source\\PSoC4/PGA.h"
 241              		.file 5 "Generated_Source\\PSoC4/ADC_Temp.h"
 242              		.file 6 "Generated_Source\\PSoC4/UART_PC_SPI_UART.h"
 243              		.file 7 "Generated_Source\\PSoC4/Thermocouple_1.h"
 244              		.file 8 "c:\\program files (x86)\\cypress\\psoc creator\\4.3\\psoc creator\\import\\gnu\\arm\\5.4.