ARM GAS  C:\Users\GCRIST~1\AppData\Local\Temp\ccMvksgK.s 			page 1


   1              		.syntax unified
   2              		.cpu cortex-m0plus
   3              		.fpu softvfp
   4              		.eabi_attribute 20, 1
   5              		.eabi_attribute 21, 1
   6              		.eabi_attribute 23, 3
   7              		.eabi_attribute 24, 1
   8              		.eabi_attribute 25, 1
   9              		.eabi_attribute 26, 1
  10              		.eabi_attribute 30, 1
  11              		.eabi_attribute 34, 0
  12              		.eabi_attribute 18, 4
  13              		.thumb
  14              		.syntax unified
  15              		.file	"PGA.c"
  16              		.text
  17              	.Ltext0:
  18              		.cfi_sections	.debug_frame
  19              		.section	.text.PGA_Enable,"ax",%progbits
  20              		.align	2
  21              		.global	PGA_Enable
  22              		.code	16
  23              		.thumb_func
  24              		.type	PGA_Enable, %function
  25              	PGA_Enable:
  26              	.LFB1:
  27              		.file 1 "Generated_Source\\PSoC4\\PGA.c"
   1:Generated_Source\PSoC4/PGA.c **** /***************************************************************************//**
   2:Generated_Source\PSoC4/PGA.c **** * \file     PGA.c
   3:Generated_Source\PSoC4/PGA.c **** * \version  1.10
   4:Generated_Source\PSoC4/PGA.c **** *
   5:Generated_Source\PSoC4/PGA.c **** * \brief
   6:Generated_Source\PSoC4/PGA.c **** *  This file provides the source code to the API for the PGA_P4 Component
   7:Generated_Source\PSoC4/PGA.c **** *
   8:Generated_Source\PSoC4/PGA.c **** ********************************************************************************
   9:Generated_Source\PSoC4/PGA.c **** * \copyright
  10:Generated_Source\PSoC4/PGA.c **** * Copyright 2016, Cypress Semiconductor Corporation.  All rights reserved.
  11:Generated_Source\PSoC4/PGA.c **** * You may use this file only in accordance with the license, terms, conditions,
  12:Generated_Source\PSoC4/PGA.c **** * disclaimers, and limitations in the end user license agreement accompanying
  13:Generated_Source\PSoC4/PGA.c **** * the software package with which this file was provided.
  14:Generated_Source\PSoC4/PGA.c **** *******************************************************************************/
  15:Generated_Source\PSoC4/PGA.c **** 
  16:Generated_Source\PSoC4/PGA.c **** #include "PGA_PVT.h"
  17:Generated_Source\PSoC4/PGA.c **** 
  18:Generated_Source\PSoC4/PGA.c **** 
  19:Generated_Source\PSoC4/PGA.c **** uint8 PGA_initVar = 0u; /**< Describes the init state of the component */
  20:Generated_Source\PSoC4/PGA.c **** 
  21:Generated_Source\PSoC4/PGA.c **** uint32 PGA_internalGainPower = 0u; /**< Stores component Gain, Power and Enable values */
  22:Generated_Source\PSoC4/PGA.c **** 
  23:Generated_Source\PSoC4/PGA.c **** /***************************************************************************//**
  24:Generated_Source\PSoC4/PGA.c **** * Compensation table 
  25:Generated_Source\PSoC4/PGA.c **** *
  26:Generated_Source\PSoC4/PGA.c **** * There is a feedback compensation capacitor recomended setting (for certain 
  27:Generated_Source\PSoC4/PGA.c **** * gain and power setting) under the mask 0x0F000000u
  28:Generated_Source\PSoC4/PGA.c **** * or (PGA_C_FB_MASK)
  29:Generated_Source\PSoC4/PGA.c **** *
  30:Generated_Source\PSoC4/PGA.c **** * Also there is an OpAmp compensation recomended setting (for certain 
ARM GAS  C:\Users\GCRIST~1\AppData\Local\Temp\ccMvksgK.s 			page 2


  31:Generated_Source\PSoC4/PGA.c **** * gain and power setting) under the mask 0x00000003u
  32:Generated_Source\PSoC4/PGA.c **** * or (PGA_GET_OA_COMP_TRIM)
  33:Generated_Source\PSoC4/PGA.c **** *
  34:Generated_Source\PSoC4/PGA.c **** * There is only 6 values for whole gain range because the recommended 
  35:Generated_Source\PSoC4/PGA.c **** * values are for each pair of adjacent gain values, e.g.:
  36:Generated_Source\PSoC4/PGA.c **** * the first (index = 0) value is for gain = 1 and 1.4,
  37:Generated_Source\PSoC4/PGA.c **** * the second (index = 1) value is for gain = 2 and 2.8,and so on,
  38:Generated_Source\PSoC4/PGA.c **** * and the sixth (index = 5) value is for gain = 32 only.
  39:Generated_Source\PSoC4/PGA.c **** *******************************************************************************/
  40:Generated_Source\PSoC4/PGA.c **** const uint32 PGA_compTab[PGA_COMP_TAB_HEIGHT][PGA_COMP_TAB_WIDTH] =
  41:Generated_Source\PSoC4/PGA.c **** {
  42:Generated_Source\PSoC4/PGA.c **** #if (PGA_CHECK_OUTPUT_MODE) /* Class AB */
  43:Generated_Source\PSoC4/PGA.c ****     {0x0F000002u, 0x0F000002u, 0x0F000002u},
  44:Generated_Source\PSoC4/PGA.c ****     {0x07000002u, 0x09000002u, 0x09000002u},
  45:Generated_Source\PSoC4/PGA.c ****     {0x04000002u, 0x04000002u, 0x04000002u},
  46:Generated_Source\PSoC4/PGA.c ****     {0x03000001u, 0x02000002u, 0x03000002u},
  47:Generated_Source\PSoC4/PGA.c ****     {0x01000001u, 0x00000002u, 0x00000002u},
  48:Generated_Source\PSoC4/PGA.c ****     {0x01000001u, 0x01000001u, 0x02000001u}
  49:Generated_Source\PSoC4/PGA.c **** #else /* Class A */
  50:Generated_Source\PSoC4/PGA.c ****     {0x0F000002u, 0x0F000002u, 0x0F000002u},
  51:Generated_Source\PSoC4/PGA.c ****     {0x08000002u, 0x09000002u, 0x09000002u},
  52:Generated_Source\PSoC4/PGA.c ****     {0x03000001u, 0x05000002u, 0x04000002u},
  53:Generated_Source\PSoC4/PGA.c ****     {0x00000001u, 0x02000002u, 0x03000002u},
  54:Generated_Source\PSoC4/PGA.c ****     {0x00000001u, 0x00000002u, 0x01000002u},
  55:Generated_Source\PSoC4/PGA.c ****     {0x00000001u, 0x00000001u, 0x00000001u}
  56:Generated_Source\PSoC4/PGA.c **** #endif /* PGA_OUTPUT_MODE */
  57:Generated_Source\PSoC4/PGA.c **** };
  58:Generated_Source\PSoC4/PGA.c **** 
  59:Generated_Source\PSoC4/PGA.c **** 
  60:Generated_Source\PSoC4/PGA.c **** /*******************************************************************************   
  61:Generated_Source\PSoC4/PGA.c **** * Function Name: PGA_Init
  62:Generated_Source\PSoC4/PGA.c **** ****************************************************************************//**
  63:Generated_Source\PSoC4/PGA.c **** *
  64:Generated_Source\PSoC4/PGA.c **** *  Initializes component's parameters to the values set by user in the 
  65:Generated_Source\PSoC4/PGA.c **** *  customizer of the component placed onto schematic. Usually it is called in 
  66:Generated_Source\PSoC4/PGA.c **** *  PGA_Start().
  67:Generated_Source\PSoC4/PGA.c **** *
  68:Generated_Source\PSoC4/PGA.c **** *******************************************************************************/
  69:Generated_Source\PSoC4/PGA.c **** void PGA_Init(void)
  70:Generated_Source\PSoC4/PGA.c **** {
  71:Generated_Source\PSoC4/PGA.c ****     /* Set default internal variable value */
  72:Generated_Source\PSoC4/PGA.c ****     PGA_internalGainPower = PGA_DEFAULT_GAIN_POWER;
  73:Generated_Source\PSoC4/PGA.c ****     
  74:Generated_Source\PSoC4/PGA.c ****     /* Set default register values */
  75:Generated_Source\PSoC4/PGA.c ****     PGA_CTB_CTRL_REG |= PGA_DEFAULT_CTB_CTRL;
  76:Generated_Source\PSoC4/PGA.c ****     PGA_OA_RES_CTRL_REG &= (uint32) ~PGA_DEFAULT_OA_RES_CTRL_MASK;
  77:Generated_Source\PSoC4/PGA.c ****     PGA_OA_RES_CTRL_REG |= PGA_DEFAULT_OA_RES_CTRL;
  78:Generated_Source\PSoC4/PGA.c ****     
  79:Generated_Source\PSoC4/PGA.c ****     /* Check if component has been enabled */
  80:Generated_Source\PSoC4/PGA.c ****     if((PGA_OA_RES_CTRL_REG & PGA_OA_PWR_MODE_MASK) != 0u)
  81:Generated_Source\PSoC4/PGA.c ****     {
  82:Generated_Source\PSoC4/PGA.c ****         /* Set the default power level */
  83:Generated_Source\PSoC4/PGA.c ****         PGA_Enable();
  84:Generated_Source\PSoC4/PGA.c ****     }
  85:Generated_Source\PSoC4/PGA.c ****     
  86:Generated_Source\PSoC4/PGA.c ****     /* Set default gain and correspondent Cfb and OA_trim values */
  87:Generated_Source\PSoC4/PGA.c ****     PGA_SetGain(PGA_GAIN);
ARM GAS  C:\Users\GCRIST~1\AppData\Local\Temp\ccMvksgK.s 			page 3


  88:Generated_Source\PSoC4/PGA.c **** }
  89:Generated_Source\PSoC4/PGA.c **** 
  90:Generated_Source\PSoC4/PGA.c **** 
  91:Generated_Source\PSoC4/PGA.c **** /*******************************************************************************   
  92:Generated_Source\PSoC4/PGA.c **** * Function Name: PGA_Enable
  93:Generated_Source\PSoC4/PGA.c **** ****************************************************************************//**
  94:Generated_Source\PSoC4/PGA.c **** *
  95:Generated_Source\PSoC4/PGA.c **** *  Powers up amplifier (to default power level or restored after 
  96:Generated_Source\PSoC4/PGA.c **** *  previous PGA_Stop() call).
  97:Generated_Source\PSoC4/PGA.c **** *  Usually it is called in PGA_Start().
  98:Generated_Source\PSoC4/PGA.c **** *  
  99:Generated_Source\PSoC4/PGA.c **** *******************************************************************************/
 100:Generated_Source\PSoC4/PGA.c **** void PGA_Enable(void)
 101:Generated_Source\PSoC4/PGA.c **** {
  28              		.loc 1 101 0
  29              		.cfi_startproc
  30              		@ args = 0, pretend = 0, frame = 0
  31              		@ frame_needed = 0, uses_anonymous_args = 0
  32              		@ link register save eliminated.
 102:Generated_Source\PSoC4/PGA.c ****     PGA_OA_RES_CTRL_REG |= PGA_GET_POWER;
  33              		.loc 1 102 0
  34 0000 0449     		ldr	r1, .L2
  35 0002 0868     		ldr	r0, [r1]
  36 0004 044B     		ldr	r3, .L2+4
  37 0006 1B68     		ldr	r3, [r3]
  38 0008 0322     		movs	r2, #3
  39 000a 1340     		ands	r3, r2
  40 000c 0343     		orrs	r3, r0
  41 000e 0B60     		str	r3, [r1]
 103:Generated_Source\PSoC4/PGA.c **** }
  42              		.loc 1 103 0
  43              		@ sp needed
  44 0010 7047     		bx	lr
  45              	.L3:
  46 0012 C046     		.align	2
  47              	.L2:
  48 0014 04003040 		.word	1076887556
  49 0018 00000000 		.word	.LANCHOR0
  50              		.cfi_endproc
  51              	.LFE1:
  52              		.size	PGA_Enable, .-PGA_Enable
  53              		.section	.text.PGA_Stop,"ax",%progbits
  54              		.align	2
  55              		.global	PGA_Stop
  56              		.code	16
  57              		.thumb_func
  58              		.type	PGA_Stop, %function
  59              	PGA_Stop:
  60              	.LFB3:
 104:Generated_Source\PSoC4/PGA.c **** 
 105:Generated_Source\PSoC4/PGA.c **** 
 106:Generated_Source\PSoC4/PGA.c **** /*******************************************************************************
 107:Generated_Source\PSoC4/PGA.c **** * Function Name: PGA_Start
 108:Generated_Source\PSoC4/PGA.c **** ****************************************************************************//**
 109:Generated_Source\PSoC4/PGA.c **** *
 110:Generated_Source\PSoC4/PGA.c **** *  Enables the amplifier operation (calls PGA_Enable).
 111:Generated_Source\PSoC4/PGA.c **** *  Also on the first call (after the system reset) initializes all the component
ARM GAS  C:\Users\GCRIST~1\AppData\Local\Temp\ccMvksgK.s 			page 4


 112:Generated_Source\PSoC4/PGA.c **** *  related registers with default values (calls PGA_Init).
 113:Generated_Source\PSoC4/PGA.c **** *
 114:Generated_Source\PSoC4/PGA.c **** *  \globalvars
 115:Generated_Source\PSoC4/PGA.c **** *   The PGA_initVar variable is used to indicate initial
 116:Generated_Source\PSoC4/PGA.c **** *   configuration of this component. The variable is initialized to zero (0u)
 117:Generated_Source\PSoC4/PGA.c **** *   and set to one (1u) at the first time PGA_Start() is called.
 118:Generated_Source\PSoC4/PGA.c **** *   This allows to enable the component without re-initialization in all
 119:Generated_Source\PSoC4/PGA.c **** *   subsequent calls of the PGA_Start() routine.
 120:Generated_Source\PSoC4/PGA.c **** *
 121:Generated_Source\PSoC4/PGA.c **** *******************************************************************************/
 122:Generated_Source\PSoC4/PGA.c **** void PGA_Start(void)
 123:Generated_Source\PSoC4/PGA.c **** {
 124:Generated_Source\PSoC4/PGA.c ****     if(PGA_initVar == 0u)
 125:Generated_Source\PSoC4/PGA.c ****     {
 126:Generated_Source\PSoC4/PGA.c ****         PGA_Init();
 127:Generated_Source\PSoC4/PGA.c ****         PGA_initVar = 1u;
 128:Generated_Source\PSoC4/PGA.c ****     }
 129:Generated_Source\PSoC4/PGA.c **** 
 130:Generated_Source\PSoC4/PGA.c ****     PGA_Enable();
 131:Generated_Source\PSoC4/PGA.c **** }
 132:Generated_Source\PSoC4/PGA.c **** 
 133:Generated_Source\PSoC4/PGA.c **** 
 134:Generated_Source\PSoC4/PGA.c **** /*******************************************************************************
 135:Generated_Source\PSoC4/PGA.c **** * Function Name: PGA_Stop
 136:Generated_Source\PSoC4/PGA.c **** ****************************************************************************//**
 137:Generated_Source\PSoC4/PGA.c **** *
 138:Generated_Source\PSoC4/PGA.c **** *  Powers down the amplifier.
 139:Generated_Source\PSoC4/PGA.c **** *
 140:Generated_Source\PSoC4/PGA.c **** *******************************************************************************/
 141:Generated_Source\PSoC4/PGA.c **** void PGA_Stop(void)
 142:Generated_Source\PSoC4/PGA.c **** { 
  61              		.loc 1 142 0
  62              		.cfi_startproc
  63              		@ args = 0, pretend = 0, frame = 0
  64              		@ frame_needed = 0, uses_anonymous_args = 0
  65              		@ link register save eliminated.
 143:Generated_Source\PSoC4/PGA.c ****     PGA_OA_RES_CTRL_REG &= (uint32)~PGA_OA_PWR_MODE_MASK;
  66              		.loc 1 143 0
  67 0000 024A     		ldr	r2, .L5
  68 0002 1368     		ldr	r3, [r2]
  69 0004 0321     		movs	r1, #3
  70 0006 8B43     		bics	r3, r1
  71 0008 1360     		str	r3, [r2]
 144:Generated_Source\PSoC4/PGA.c **** }
  72              		.loc 1 144 0
  73              		@ sp needed
  74 000a 7047     		bx	lr
  75              	.L6:
  76              		.align	2
  77              	.L5:
  78 000c 04003040 		.word	1076887556
  79              		.cfi_endproc
  80              	.LFE3:
  81              		.size	PGA_Stop, .-PGA_Stop
  82              		.section	.text.PGA_SetPower,"ax",%progbits
  83              		.align	2
  84              		.global	PGA_SetPower
ARM GAS  C:\Users\GCRIST~1\AppData\Local\Temp\ccMvksgK.s 			page 5


  85              		.code	16
  86              		.thumb_func
  87              		.type	PGA_SetPower, %function
  88              	PGA_SetPower:
  89              	.LFB4:
 145:Generated_Source\PSoC4/PGA.c **** 
 146:Generated_Source\PSoC4/PGA.c **** 
 147:Generated_Source\PSoC4/PGA.c **** /*******************************************************************************
 148:Generated_Source\PSoC4/PGA.c **** * Function Name: PGA_SetPower
 149:Generated_Source\PSoC4/PGA.c **** ****************************************************************************//**
 150:Generated_Source\PSoC4/PGA.c **** *
 151:Generated_Source\PSoC4/PGA.c **** *  Sets the power level of amplifier.
 152:Generated_Source\PSoC4/PGA.c **** *
 153:Generated_Source\PSoC4/PGA.c **** * \param powerLevel
 154:Generated_Source\PSoC4/PGA.c **** *  The power level setting of amplifier. Possible values:
 155:Generated_Source\PSoC4/PGA.c **** *   * PGA_LOW - The lowest power consumption.
 156:Generated_Source\PSoC4/PGA.c **** *   * PGA_MED - The middle setting.
 157:Generated_Source\PSoC4/PGA.c **** *   * PGA_HIGH - The highest amplifier bandwidth.
 158:Generated_Source\PSoC4/PGA.c **** *
 159:Generated_Source\PSoC4/PGA.c **** *  \internal
 160:Generated_Source\PSoC4/PGA.c **** *   The PGA_internalGainPower variable is used to store the
 161:Generated_Source\PSoC4/PGA.c **** *   current gain and power level to set appropriate compensation settings.
 162:Generated_Source\PSoC4/PGA.c **** *
 163:Generated_Source\PSoC4/PGA.c **** *******************************************************************************/
 164:Generated_Source\PSoC4/PGA.c **** void PGA_SetPower(uint32 powerLevel)
 165:Generated_Source\PSoC4/PGA.c **** {
  90              		.loc 1 165 0
  91              		.cfi_startproc
  92              		@ args = 0, pretend = 0, frame = 0
  93              		@ frame_needed = 0, uses_anonymous_args = 0
  94              	.LVL0:
  95 0000 F0B5     		push	{r4, r5, r6, r7, lr}
  96              		.cfi_def_cfa_offset 20
  97              		.cfi_offset 4, -20
  98              		.cfi_offset 5, -16
  99              		.cfi_offset 6, -12
 100              		.cfi_offset 7, -8
 101              		.cfi_offset 14, -4
 102 0002 4746     		mov	r7, r8
 103 0004 80B4     		push	{r7}
 104              		.cfi_def_cfa_offset 24
 105              		.cfi_offset 8, -24
 166:Generated_Source\PSoC4/PGA.c ****     uint32 locTmp;
 167:Generated_Source\PSoC4/PGA.c ****     
 168:Generated_Source\PSoC4/PGA.c ****     /* Save the powerLevel */
 169:Generated_Source\PSoC4/PGA.c ****     PGA_internalGainPower &= (uint32) ~PGA_OA_PWR_MODE_MASK;
 106              		.loc 1 169 0
 107 0006 184D     		ldr	r5, .L8
 108 0008 0321     		movs	r1, #3
 109 000a 2B68     		ldr	r3, [r5]
 110 000c 8B43     		bics	r3, r1
 170:Generated_Source\PSoC4/PGA.c ****     PGA_internalGainPower |= powerLevel & PGA_OA_PWR_MODE_MASK;
 111              		.loc 1 170 0
 112 000e 0840     		ands	r0, r1
 113              	.LVL1:
 114 0010 1843     		orrs	r0, r3
 115 0012 2860     		str	r0, [r5]
ARM GAS  C:\Users\GCRIST~1\AppData\Local\Temp\ccMvksgK.s 			page 6


 171:Generated_Source\PSoC4/PGA.c ****     
 172:Generated_Source\PSoC4/PGA.c ****     /* Save the rest of register bitfields */
 173:Generated_Source\PSoC4/PGA.c ****     locTmp = PGA_OA_RES_CTRL_REG &
 116              		.loc 1 173 0
 117 0014 154B     		ldr	r3, .L8+4
 118 0016 9846     		mov	r8, r3
 119 0018 1C68     		ldr	r4, [r3]
 120 001a 154A     		ldr	r2, .L8+8
 121 001c 1440     		ands	r4, r2
 122              	.LVL2:
 174:Generated_Source\PSoC4/PGA.c ****         (uint32)~(PGA_OA_PWR_MODE_MASK | PGA_C_FB_MASK);
 175:Generated_Source\PSoC4/PGA.c ****            
 176:Generated_Source\PSoC4/PGA.c ****     /* Set the power and the feedback capacitor values into the control register */
 177:Generated_Source\PSoC4/PGA.c ****     PGA_OA_RES_CTRL_REG  = locTmp | PGA_GET_POWER | PGA_GET_C_FB;
 123              		.loc 1 177 0
 124 001e 0A00     		movs	r2, r1
 125 0020 0240     		ands	r2, r0
 126 0022 1443     		orrs	r4, r2
 127              	.LVL3:
 128 0024 400C     		lsrs	r0, r0, #17
 129 0026 0727     		movs	r7, #7
 130 0028 3840     		ands	r0, r7
 131 002a 013A     		subs	r2, r2, #1
 132 002c 114E     		ldr	r6, .L8+12
 133 002e 4300     		lsls	r3, r0, #1
 134 0030 9C46     		mov	ip, r3
 135 0032 6044     		add	r0, r0, ip
 136 0034 8018     		adds	r0, r0, r2
 137 0036 8000     		lsls	r0, r0, #2
 138 0038 8059     		ldr	r0, [r0, r6]
 139 003a F022     		movs	r2, #240
 140 003c 1205     		lsls	r2, r2, #20
 141 003e 0240     		ands	r2, r0
 142 0040 1443     		orrs	r4, r2
 143 0042 4346     		mov	r3, r8
 144 0044 1C60     		str	r4, [r3]
 178:Generated_Source\PSoC4/PGA.c ****     
 179:Generated_Source\PSoC4/PGA.c ****     /* Set the OA compensation capacitor value */
 180:Generated_Source\PSoC4/PGA.c ****     PGA_OA_COMP_TRIM_REG = PGA_GET_OA_COMP_TRIM;
 145              		.loc 1 180 0
 146 0046 2B68     		ldr	r3, [r5]
 147 0048 5A0C     		lsrs	r2, r3, #17
 148 004a 1740     		ands	r7, r2
 149 004c 0B40     		ands	r3, r1
 150 004e 5A1E     		subs	r2, r3, #1
 151 0050 7B00     		lsls	r3, r7, #1
 152 0052 DB19     		adds	r3, r3, r7
 153 0054 9B18     		adds	r3, r3, r2
 154 0056 9B00     		lsls	r3, r3, #2
 155 0058 9B59     		ldr	r3, [r3, r6]
 156 005a 1940     		ands	r1, r3
 157 005c 064B     		ldr	r3, .L8+16
 158 005e 1960     		str	r1, [r3]
 181:Generated_Source\PSoC4/PGA.c **** }
 159              		.loc 1 181 0
 160              		@ sp needed
 161 0060 04BC     		pop	{r2}
ARM GAS  C:\Users\GCRIST~1\AppData\Local\Temp\ccMvksgK.s 			page 7


 162 0062 9046     		mov	r8, r2
 163 0064 F0BD     		pop	{r4, r5, r6, r7, pc}
 164              	.L9:
 165 0066 C046     		.align	2
 166              	.L8:
 167 0068 00000000 		.word	.LANCHOR0
 168 006c 04003040 		.word	1076887556
 169 0070 FCFFFFF0 		.word	-251658244
 170 0074 00000000 		.word	.LANCHOR1
 171 0078 080F3040 		.word	1076891400
 172              		.cfi_endproc
 173              	.LFE4:
 174              		.size	PGA_SetPower, .-PGA_SetPower
 175              		.section	.text.PGA_SetGain,"ax",%progbits
 176              		.align	2
 177              		.global	PGA_SetGain
 178              		.code	16
 179              		.thumb_func
 180              		.type	PGA_SetGain, %function
 181              	PGA_SetGain:
 182              	.LFB5:
 182:Generated_Source\PSoC4/PGA.c **** 
 183:Generated_Source\PSoC4/PGA.c **** 
 184:Generated_Source\PSoC4/PGA.c **** /*******************************************************************************
 185:Generated_Source\PSoC4/PGA.c **** * Function Name: PGA_SetGain
 186:Generated_Source\PSoC4/PGA.c **** ****************************************************************************//**
 187:Generated_Source\PSoC4/PGA.c **** *
 188:Generated_Source\PSoC4/PGA.c **** *  Sets values of the input and feedback resistors to set a 
 189:Generated_Source\PSoC4/PGA.c **** *  specific gain of the amplifier.
 190:Generated_Source\PSoC4/PGA.c **** *
 191:Generated_Source\PSoC4/PGA.c **** * \param gainLevel
 192:Generated_Source\PSoC4/PGA.c **** *  The gain setting of amplifier. Possible values:
 193:Generated_Source\PSoC4/PGA.c **** *   * PGA_GAIN_1_00 - gain 1.00.
 194:Generated_Source\PSoC4/PGA.c **** *   * PGA_GAIN_1_42 - gain 1.42.
 195:Generated_Source\PSoC4/PGA.c **** *   * PGA_GAIN_2_00 - gain 2.00.
 196:Generated_Source\PSoC4/PGA.c **** *   * PGA_GAIN_2_78 - gain 2.78.
 197:Generated_Source\PSoC4/PGA.c **** *   * PGA_GAIN_4_00 - gain 4.00.
 198:Generated_Source\PSoC4/PGA.c **** *   * PGA_GAIN_5_82 - gain 5.82.
 199:Generated_Source\PSoC4/PGA.c **** *   * PGA_GAIN_8_00 - gain 8.00.
 200:Generated_Source\PSoC4/PGA.c **** *   * PGA_GAIN_10_7 - gain 10.7.
 201:Generated_Source\PSoC4/PGA.c **** *   * PGA_GAIN_16_0 - gain 16.0.
 202:Generated_Source\PSoC4/PGA.c **** *   * PGA_GAIN_21_3 - gain 21.3.
 203:Generated_Source\PSoC4/PGA.c **** *   * PGA_GAIN_32_0 - gain 32.0.
 204:Generated_Source\PSoC4/PGA.c **** *
 205:Generated_Source\PSoC4/PGA.c **** *  \internal
 206:Generated_Source\PSoC4/PGA.c **** *   The PGA_internalGainPower variable is used to store the
 207:Generated_Source\PSoC4/PGA.c **** *   current gain and power level to set appropriate compensation settings.
 208:Generated_Source\PSoC4/PGA.c **** *
 209:Generated_Source\PSoC4/PGA.c **** *******************************************************************************/
 210:Generated_Source\PSoC4/PGA.c **** void PGA_SetGain(uint32 gainLevel)
 211:Generated_Source\PSoC4/PGA.c **** {
 183              		.loc 1 211 0
 184              		.cfi_startproc
 185              		@ args = 0, pretend = 0, frame = 0
 186              		@ frame_needed = 0, uses_anonymous_args = 0
 187              	.LVL4:
 188 0000 30B5     		push	{r4, r5, lr}
ARM GAS  C:\Users\GCRIST~1\AppData\Local\Temp\ccMvksgK.s 			page 8


 189              		.cfi_def_cfa_offset 12
 190              		.cfi_offset 4, -12
 191              		.cfi_offset 5, -8
 192              		.cfi_offset 14, -4
 212:Generated_Source\PSoC4/PGA.c ****     uint32 locTmp;
 213:Generated_Source\PSoC4/PGA.c ****     
 214:Generated_Source\PSoC4/PGA.c ****     /* Save the gainLevel */
 215:Generated_Source\PSoC4/PGA.c ****     PGA_internalGainPower &= (uint32) ~PGA_RES_TAP_MASK;
 193              		.loc 1 215 0
 194 0002 204C     		ldr	r4, .L13
 195 0004 204B     		ldr	r3, .L13+4
 196 0006 2168     		ldr	r1, [r4]
 197 0008 1940     		ands	r1, r3
 216:Generated_Source\PSoC4/PGA.c ****     PGA_internalGainPower |= ((uint32)(gainLevel << PGA_RES_TAP_SHIFT)) &
 198              		.loc 1 216 0
 199 000a 0304     		lsls	r3, r0, #16
 200 000c F022     		movs	r2, #240
 201 000e 1203     		lsls	r2, r2, #12
 202 0010 1340     		ands	r3, r2
 203 0012 0B43     		orrs	r3, r1
 204 0014 2360     		str	r3, [r4]
 217:Generated_Source\PSoC4/PGA.c ****                                                                  PGA_RES_TAP_MASK;
 218:Generated_Source\PSoC4/PGA.c ****     /* Save the rest of register bitfields */
 219:Generated_Source\PSoC4/PGA.c ****     locTmp = PGA_OA_RES_CTRL_REG &
 205              		.loc 1 219 0
 206 0016 1D4C     		ldr	r4, .L13+8
 207 0018 2568     		ldr	r5, [r4]
 208 001a 1D49     		ldr	r1, .L13+12
 209 001c 2940     		ands	r1, r5
 210              	.LVL5:
 220:Generated_Source\PSoC4/PGA.c ****         (uint32)~(PGA_RES_TAP_MASK | PGA_C_FB_MASK);
 221:Generated_Source\PSoC4/PGA.c ****     
 222:Generated_Source\PSoC4/PGA.c ****     /* Set the gain and the feedback capacitor values into the control register */
 223:Generated_Source\PSoC4/PGA.c ****     PGA_OA_RES_CTRL_REG = locTmp | (PGA_internalGainPower &
 211              		.loc 1 223 0
 212 001e 1A40     		ands	r2, r3
 213 0020 1143     		orrs	r1, r2
 214              	.LVL6:
 215 0022 0D00     		movs	r5, r1
 216              	.LVL7:
 224:Generated_Source\PSoC4/PGA.c ****         PGA_RES_TAP_MASK) | PGA_GET_C_FB;
 217              		.loc 1 224 0
 218 0024 5A0C     		lsrs	r2, r3, #17
 219 0026 0721     		movs	r1, #7
 220 0028 1140     		ands	r1, r2
 221 002a 0322     		movs	r2, #3
 222 002c 1340     		ands	r3, r2
 223 002e 5A1E     		subs	r2, r3, #1
 224 0030 4B00     		lsls	r3, r1, #1
 225 0032 5B18     		adds	r3, r3, r1
 226 0034 9B18     		adds	r3, r3, r2
 227 0036 9B00     		lsls	r3, r3, #2
 228 0038 164A     		ldr	r2, .L13+16
 229 003a 9B58     		ldr	r3, [r3, r2]
 230 003c F022     		movs	r2, #240
 231 003e 1205     		lsls	r2, r2, #20
 232 0040 1A40     		ands	r2, r3
ARM GAS  C:\Users\GCRIST~1\AppData\Local\Temp\ccMvksgK.s 			page 9


 233 0042 2B00     		movs	r3, r5
 234 0044 1343     		orrs	r3, r2
 223:Generated_Source\PSoC4/PGA.c ****         PGA_RES_TAP_MASK) | PGA_GET_C_FB;
 235              		.loc 1 223 0
 236 0046 2360     		str	r3, [r4]
 225:Generated_Source\PSoC4/PGA.c ****     
 226:Generated_Source\PSoC4/PGA.c **** #if (PGA_VREF_MODE == PGA_VREF_INTERNAL)
 227:Generated_Source\PSoC4/PGA.c ****     if(PGA_GAIN_1_00 == gainLevel)
 237              		.loc 1 227 0
 238 0048 0028     		cmp	r0, #0
 239 004a 04D1     		bne	.L11
 228:Generated_Source\PSoC4/PGA.c ****     {
 229:Generated_Source\PSoC4/PGA.c ****         /* Disconnect the resistor matrix bottom from the internal Vss */
 230:Generated_Source\PSoC4/PGA.c ****         PGA_OA_SW_CLEAR_REG = PGA_RBOT_TO_VSSA;
 240              		.loc 1 230 0
 241 004c 8022     		movs	r2, #128
 242 004e 5205     		lsls	r2, r2, #21
 243 0050 114B     		ldr	r3, .L13+20
 244 0052 1A60     		str	r2, [r3]
 245 0054 03E0     		b	.L12
 246              	.L11:
 231:Generated_Source\PSoC4/PGA.c ****     }
 232:Generated_Source\PSoC4/PGA.c ****     else
 233:Generated_Source\PSoC4/PGA.c ****     {
 234:Generated_Source\PSoC4/PGA.c ****         /* Connect the resistor matrix bottom to the internal Vss */
 235:Generated_Source\PSoC4/PGA.c ****         PGA_OA_SW_REG = PGA_RBOT_TO_VSSA;
 247              		.loc 1 235 0
 248 0056 8022     		movs	r2, #128
 249 0058 5205     		lsls	r2, r2, #21
 250 005a 104B     		ldr	r3, .L13+24
 251 005c 1A60     		str	r2, [r3]
 252              	.L12:
 236:Generated_Source\PSoC4/PGA.c ****     }
 237:Generated_Source\PSoC4/PGA.c **** #endif /* Vref Internal */
 238:Generated_Source\PSoC4/PGA.c ****     
 239:Generated_Source\PSoC4/PGA.c ****     /* Set the OA compensation capacitor value */
 240:Generated_Source\PSoC4/PGA.c ****     PGA_OA_COMP_TRIM_REG = PGA_GET_OA_COMP_TRIM;
 253              		.loc 1 240 0
 254 005e 094B     		ldr	r3, .L13
 255 0060 1B68     		ldr	r3, [r3]
 256 0062 5A0C     		lsrs	r2, r3, #17
 257 0064 0721     		movs	r1, #7
 258 0066 1140     		ands	r1, r2
 259 0068 0320     		movs	r0, #3
 260              	.LVL8:
 261 006a 0340     		ands	r3, r0
 262 006c 5A1E     		subs	r2, r3, #1
 263 006e 4B00     		lsls	r3, r1, #1
 264 0070 5B18     		adds	r3, r3, r1
 265 0072 9B18     		adds	r3, r3, r2
 266 0074 9B00     		lsls	r3, r3, #2
 267 0076 074A     		ldr	r2, .L13+16
 268 0078 9B58     		ldr	r3, [r3, r2]
 269 007a 0340     		ands	r3, r0
 270 007c 084A     		ldr	r2, .L13+28
 271 007e 1360     		str	r3, [r2]
 241:Generated_Source\PSoC4/PGA.c **** }
ARM GAS  C:\Users\GCRIST~1\AppData\Local\Temp\ccMvksgK.s 			page 10


 272              		.loc 1 241 0
 273              		@ sp needed
 274 0080 30BD     		pop	{r4, r5, pc}
 275              	.L14:
 276 0082 C046     		.align	2
 277              	.L13:
 278 0084 00000000 		.word	.LANCHOR0
 279 0088 FFFFF0FF 		.word	-983041
 280 008c 04003040 		.word	1076887556
 281 0090 FFFFF0F0 		.word	-252641281
 282 0094 00000000 		.word	.LANCHOR1
 283 0098 84003040 		.word	1076887684
 284 009c 80003040 		.word	1076887680
 285 00a0 080F3040 		.word	1076891400
 286              		.cfi_endproc
 287              	.LFE5:
 288              		.size	PGA_SetGain, .-PGA_SetGain
 289              		.section	.text.PGA_Init,"ax",%progbits
 290              		.align	2
 291              		.global	PGA_Init
 292              		.code	16
 293              		.thumb_func
 294              		.type	PGA_Init, %function
 295              	PGA_Init:
 296              	.LFB0:
  70:Generated_Source\PSoC4/PGA.c ****     /* Set default internal variable value */
 297              		.loc 1 70 0
 298              		.cfi_startproc
 299              		@ args = 0, pretend = 0, frame = 0
 300              		@ frame_needed = 0, uses_anonymous_args = 0
 301 0000 10B5     		push	{r4, lr}
 302              		.cfi_def_cfa_offset 8
 303              		.cfi_offset 4, -8
 304              		.cfi_offset 14, -4
  72:Generated_Source\PSoC4/PGA.c ****     
 305              		.loc 1 72 0
 306 0002 0E4A     		ldr	r2, .L17
 307 0004 0E4B     		ldr	r3, .L17+4
 308 0006 1A60     		str	r2, [r3]
  75:Generated_Source\PSoC4/PGA.c ****     PGA_OA_RES_CTRL_REG &= (uint32) ~PGA_DEFAULT_OA_RES_CTRL_MASK;
 309              		.loc 1 75 0
 310 0008 0E4A     		ldr	r2, .L17+8
 311 000a 1368     		ldr	r3, [r2]
 312 000c 8021     		movs	r1, #128
 313 000e 0906     		lsls	r1, r1, #24
 314 0010 0B43     		orrs	r3, r1
 315 0012 1360     		str	r3, [r2]
  76:Generated_Source\PSoC4/PGA.c ****     PGA_OA_RES_CTRL_REG |= PGA_DEFAULT_OA_RES_CTRL;
 316              		.loc 1 76 0
 317 0014 0C4B     		ldr	r3, .L17+12
 318 0016 1968     		ldr	r1, [r3]
 319 0018 0C4A     		ldr	r2, .L17+16
 320 001a 0A40     		ands	r2, r1
 321 001c 1A60     		str	r2, [r3]
  77:Generated_Source\PSoC4/PGA.c ****     
 322              		.loc 1 77 0
 323 001e 1A68     		ldr	r2, [r3]
ARM GAS  C:\Users\GCRIST~1\AppData\Local\Temp\ccMvksgK.s 			page 11


 324 0020 8021     		movs	r1, #128
 325 0022 0901     		lsls	r1, r1, #4
 326 0024 0A43     		orrs	r2, r1
 327 0026 1A60     		str	r2, [r3]
  80:Generated_Source\PSoC4/PGA.c ****     {
 328              		.loc 1 80 0
 329 0028 1B68     		ldr	r3, [r3]
 330 002a 9B07     		lsls	r3, r3, #30
 331 002c 01D0     		beq	.L16
  83:Generated_Source\PSoC4/PGA.c ****     }
 332              		.loc 1 83 0
 333 002e FFF7FEFF 		bl	PGA_Enable
 334              	.LVL9:
 335              	.L16:
  87:Generated_Source\PSoC4/PGA.c **** }
 336              		.loc 1 87 0
 337 0032 0A20     		movs	r0, #10
 338 0034 FFF7FEFF 		bl	PGA_SetGain
 339              	.LVL10:
  88:Generated_Source\PSoC4/PGA.c **** 
 340              		.loc 1 88 0
 341              		@ sp needed
 342 0038 10BD     		pop	{r4, pc}
 343              	.L18:
 344 003a C046     		.align	2
 345              	.L17:
 346 003c 03000A00 		.word	655363
 347 0040 00000000 		.word	.LANCHOR0
 348 0044 00003040 		.word	1076887552
 349 0048 04003040 		.word	1076887556
 350 004c FBF7FFFF 		.word	-2053
 351              		.cfi_endproc
 352              	.LFE0:
 353              		.size	PGA_Init, .-PGA_Init
 354              		.section	.text.PGA_Start,"ax",%progbits
 355              		.align	2
 356              		.global	PGA_Start
 357              		.code	16
 358              		.thumb_func
 359              		.type	PGA_Start, %function
 360              	PGA_Start:
 361              	.LFB2:
 123:Generated_Source\PSoC4/PGA.c ****     if(PGA_initVar == 0u)
 362              		.loc 1 123 0
 363              		.cfi_startproc
 364              		@ args = 0, pretend = 0, frame = 0
 365              		@ frame_needed = 0, uses_anonymous_args = 0
 366 0000 10B5     		push	{r4, lr}
 367              		.cfi_def_cfa_offset 8
 368              		.cfi_offset 4, -8
 369              		.cfi_offset 14, -4
 124:Generated_Source\PSoC4/PGA.c ****     {
 370              		.loc 1 124 0
 371 0002 064B     		ldr	r3, .L21
 372 0004 1B79     		ldrb	r3, [r3, #4]
 373 0006 002B     		cmp	r3, #0
 374 0008 04D1     		bne	.L20
ARM GAS  C:\Users\GCRIST~1\AppData\Local\Temp\ccMvksgK.s 			page 12


 126:Generated_Source\PSoC4/PGA.c ****         PGA_initVar = 1u;
 375              		.loc 1 126 0
 376 000a FFF7FEFF 		bl	PGA_Init
 377              	.LVL11:
 127:Generated_Source\PSoC4/PGA.c ****     }
 378              		.loc 1 127 0
 379 000e 0122     		movs	r2, #1
 380 0010 024B     		ldr	r3, .L21
 381 0012 1A71     		strb	r2, [r3, #4]
 382              	.L20:
 130:Generated_Source\PSoC4/PGA.c **** }
 383              		.loc 1 130 0
 384 0014 FFF7FEFF 		bl	PGA_Enable
 385              	.LVL12:
 131:Generated_Source\PSoC4/PGA.c **** 
 386              		.loc 1 131 0
 387              		@ sp needed
 388 0018 10BD     		pop	{r4, pc}
 389              	.L22:
 390 001a C046     		.align	2
 391              	.L21:
 392 001c 00000000 		.word	.LANCHOR0
 393              		.cfi_endproc
 394              	.LFE2:
 395              		.size	PGA_Start, .-PGA_Start
 396              		.section	.text.PGA_PumpControl,"ax",%progbits
 397              		.align	2
 398              		.global	PGA_PumpControl
 399              		.code	16
 400              		.thumb_func
 401              		.type	PGA_PumpControl, %function
 402              	PGA_PumpControl:
 403              	.LFB6:
 242:Generated_Source\PSoC4/PGA.c **** 
 243:Generated_Source\PSoC4/PGA.c **** 
 244:Generated_Source\PSoC4/PGA.c **** /*******************************************************************************
 245:Generated_Source\PSoC4/PGA.c **** * Function Name: PGA_PumpControl
 246:Generated_Source\PSoC4/PGA.c **** ****************************************************************************//**
 247:Generated_Source\PSoC4/PGA.c **** *
 248:Generated_Source\PSoC4/PGA.c **** *  Allows the user to turn the amplifier's boost pump on or off.
 249:Generated_Source\PSoC4/PGA.c **** *  By Default the PGA_Init() function turns the pump on.
 250:Generated_Source\PSoC4/PGA.c **** *  Charge-pump must be turned on to provide
 251:Generated_Source\PSoC4/PGA.c **** *  rail-rail input common mode. Each op amp has a charge pump that can be
 252:Generated_Source\PSoC4/PGA.c **** *  controlled individually. The pump can be turned off for low input range
 253:Generated_Source\PSoC4/PGA.c **** *  levels. When the pump is turned off, the pump supply will be shorted to vdda.
 254:Generated_Source\PSoC4/PGA.c **** *  Shutting down the charge pump allows the op-amp to achieve low power modes.
 255:Generated_Source\PSoC4/PGA.c **** *  
 256:Generated_Source\PSoC4/PGA.c **** * \param onOff
 257:Generated_Source\PSoC4/PGA.c **** *  The boost pump setting. Possible values:
 258:Generated_Source\PSoC4/PGA.c **** *   * PGA_BOOST_OFF - Turn off the pump.
 259:Generated_Source\PSoC4/PGA.c **** *   * PGA_BOOST_ON  - Turn on the pump.
 260:Generated_Source\PSoC4/PGA.c **** *
 261:Generated_Source\PSoC4/PGA.c **** **********************************************************************************/
 262:Generated_Source\PSoC4/PGA.c **** void PGA_PumpControl(uint32 onOff)
 263:Generated_Source\PSoC4/PGA.c **** {
 404              		.loc 1 263 0
 405              		.cfi_startproc
ARM GAS  C:\Users\GCRIST~1\AppData\Local\Temp\ccMvksgK.s 			page 13


 406              		@ args = 0, pretend = 0, frame = 0
 407              		@ frame_needed = 0, uses_anonymous_args = 0
 408              		@ link register save eliminated.
 409              	.LVL13:
 264:Generated_Source\PSoC4/PGA.c ****     if(onOff == PGA_BOOST_ON)
 410              		.loc 1 264 0
 411 0000 0128     		cmp	r0, #1
 412 0002 06D1     		bne	.L24
 265:Generated_Source\PSoC4/PGA.c ****     {
 266:Generated_Source\PSoC4/PGA.c ****         PGA_OA_RES_CTRL_REG |= PGA_OA_PUMP_EN;
 413              		.loc 1 266 0
 414 0004 064A     		ldr	r2, .L26
 415 0006 1368     		ldr	r3, [r2]
 416 0008 8021     		movs	r1, #128
 417 000a 0901     		lsls	r1, r1, #4
 418 000c 0B43     		orrs	r3, r1
 419 000e 1360     		str	r3, [r2]
 420 0010 04E0     		b	.L23
 421              	.L24:
 267:Generated_Source\PSoC4/PGA.c ****     }
 268:Generated_Source\PSoC4/PGA.c ****     else
 269:Generated_Source\PSoC4/PGA.c ****     {
 270:Generated_Source\PSoC4/PGA.c ****         PGA_OA_RES_CTRL_REG &= (uint32)~PGA_OA_PUMP_EN;
 422              		.loc 1 270 0
 423 0012 034A     		ldr	r2, .L26
 424 0014 1168     		ldr	r1, [r2]
 425 0016 034B     		ldr	r3, .L26+4
 426 0018 0B40     		ands	r3, r1
 427 001a 1360     		str	r3, [r2]
 428              	.L23:
 271:Generated_Source\PSoC4/PGA.c ****     }
 272:Generated_Source\PSoC4/PGA.c **** }
 429              		.loc 1 272 0
 430              		@ sp needed
 431 001c 7047     		bx	lr
 432              	.L27:
 433 001e C046     		.align	2
 434              	.L26:
 435 0020 04003040 		.word	1076887556
 436 0024 FFF7FFFF 		.word	-2049
 437              		.cfi_endproc
 438              	.LFE6:
 439              		.size	PGA_PumpControl, .-PGA_PumpControl
 440              		.global	PGA_compTab
 441              		.global	PGA_internalGainPower
 442              		.global	PGA_initVar
 443              		.section	.rodata
 444              		.align	2
 445              		.set	.LANCHOR1,. + 0
 446              		.type	PGA_compTab, %object
 447              		.size	PGA_compTab, 72
 448              	PGA_compTab:
 449 0000 0200000F 		.word	251658242
 450 0004 0200000F 		.word	251658242
 451 0008 0200000F 		.word	251658242
 452 000c 02000008 		.word	134217730
 453 0010 02000009 		.word	150994946
ARM GAS  C:\Users\GCRIST~1\AppData\Local\Temp\ccMvksgK.s 			page 14


 454 0014 02000009 		.word	150994946
 455 0018 01000003 		.word	50331649
 456 001c 02000005 		.word	83886082
 457 0020 02000004 		.word	67108866
 458 0024 01000000 		.word	1
 459 0028 02000002 		.word	33554434
 460 002c 02000003 		.word	50331650
 461 0030 01000000 		.word	1
 462 0034 02000000 		.word	2
 463 0038 02000001 		.word	16777218
 464 003c 01000000 		.word	1
 465 0040 01000000 		.word	1
 466 0044 01000000 		.word	1
 467              		.bss
 468              		.align	2
 469              		.set	.LANCHOR0,. + 0
 470              		.type	PGA_internalGainPower, %object
 471              		.size	PGA_internalGainPower, 4
 472              	PGA_internalGainPower:
 473 0000 00000000 		.space	4
 474              		.type	PGA_initVar, %object
 475              		.size	PGA_initVar, 1
 476              	PGA_initVar:
 477 0004 00       		.space	1
 478              		.text
 479              	.Letext0:
 480              		.file 2 "Generated_Source\\PSoC4\\cytypes.h"