ARM GAS  C:\Users\GCRIST~1\AppData\Local\Temp\ccEjIM8R.s 			page 1


   1              		.syntax unified
   2              		.cpu cortex-m0plus
   3              		.fpu softvfp
   4              		.eabi_attribute 20, 1
   5              		.eabi_attribute 21, 1
   6              		.eabi_attribute 23, 3
   7              		.eabi_attribute 24, 1
   8              		.eabi_attribute 25, 1
   9              		.eabi_attribute 26, 1
  10              		.eabi_attribute 30, 1
  11              		.eabi_attribute 34, 0
  12              		.eabi_attribute 18, 4
  13              		.thumb
  14              		.syntax unified
  15              		.file	"PGA_PM.c"
  16              		.text
  17              	.Ltext0:
  18              		.cfi_sections	.debug_frame
  19              		.section	.text.PGA_SaveConfig,"ax",%progbits
  20              		.align	2
  21              		.global	PGA_SaveConfig
  22              		.code	16
  23              		.thumb_func
  24              		.type	PGA_SaveConfig, %function
  25              	PGA_SaveConfig:
  26              	.LFB0:
  27              		.file 1 "Generated_Source\\PSoC4\\PGA_PM.c"
   1:Generated_Source\PSoC4/PGA_PM.c **** /***************************************************************************//**
   2:Generated_Source\PSoC4/PGA_PM.c **** * \file     PGA_PM.c  
   3:Generated_Source\PSoC4/PGA_PM.c **** * \version  1.10
   4:Generated_Source\PSoC4/PGA_PM.c **** *
   5:Generated_Source\PSoC4/PGA_PM.c **** * \brief
   6:Generated_Source\PSoC4/PGA_PM.c **** *  This file provides the power management source code to the API for PGA_P4 
   7:Generated_Source\PSoC4/PGA_PM.c **** *  Component.
   8:Generated_Source\PSoC4/PGA_PM.c **** *
   9:Generated_Source\PSoC4/PGA_PM.c **** ********************************************************************************
  10:Generated_Source\PSoC4/PGA_PM.c **** * \copyright
  11:Generated_Source\PSoC4/PGA_PM.c **** * Copyright 2016, Cypress Semiconductor Corporation.  All rights reserved.
  12:Generated_Source\PSoC4/PGA_PM.c **** * You may use this file only in accordance with the license, terms, conditions,
  13:Generated_Source\PSoC4/PGA_PM.c **** * disclaimers, and limitations in the end user license agreement accompanying
  14:Generated_Source\PSoC4/PGA_PM.c **** * the software package with which this file was provided.
  15:Generated_Source\PSoC4/PGA_PM.c **** *******************************************************************************/
  16:Generated_Source\PSoC4/PGA_PM.c **** 
  17:Generated_Source\PSoC4/PGA_PM.c **** #include "PGA_PVT.h"
  18:Generated_Source\PSoC4/PGA_PM.c **** 
  19:Generated_Source\PSoC4/PGA_PM.c **** 
  20:Generated_Source\PSoC4/PGA_PM.c **** /*******************************************************************************
  21:Generated_Source\PSoC4/PGA_PM.c **** * Function Name: PGA_SaveConfig
  22:Generated_Source\PSoC4/PGA_PM.c **** ****************************************************************************//**
  23:Generated_Source\PSoC4/PGA_PM.c **** *
  24:Generated_Source\PSoC4/PGA_PM.c **** *  Empty function. Included for consistency with other components.
  25:Generated_Source\PSoC4/PGA_PM.c **** *
  26:Generated_Source\PSoC4/PGA_PM.c **** *******************************************************************************/
  27:Generated_Source\PSoC4/PGA_PM.c **** void PGA_SaveConfig(void)
  28:Generated_Source\PSoC4/PGA_PM.c **** {
  28              		.loc 1 28 0
  29              		.cfi_startproc
ARM GAS  C:\Users\GCRIST~1\AppData\Local\Temp\ccEjIM8R.s 			page 2


  30              		@ args = 0, pretend = 0, frame = 0
  31              		@ frame_needed = 0, uses_anonymous_args = 0
  32              		@ link register save eliminated.
  29:Generated_Source\PSoC4/PGA_PM.c ****     /* Nothing to save as registers are System reset on retention flops */
  30:Generated_Source\PSoC4/PGA_PM.c **** }
  33              		.loc 1 30 0
  34              		@ sp needed
  35 0000 7047     		bx	lr
  36              		.cfi_endproc
  37              	.LFE0:
  38              		.size	PGA_SaveConfig, .-PGA_SaveConfig
  39 0002 C046     		.section	.text.PGA_RestoreConfig,"ax",%progbits
  40              		.align	2
  41              		.global	PGA_RestoreConfig
  42              		.code	16
  43              		.thumb_func
  44              		.type	PGA_RestoreConfig, %function
  45              	PGA_RestoreConfig:
  46              	.LFB1:
  31:Generated_Source\PSoC4/PGA_PM.c **** 
  32:Generated_Source\PSoC4/PGA_PM.c **** 
  33:Generated_Source\PSoC4/PGA_PM.c **** /*******************************************************************************  
  34:Generated_Source\PSoC4/PGA_PM.c **** * Function Name: PGA_RestoreConfig
  35:Generated_Source\PSoC4/PGA_PM.c **** ****************************************************************************//**
  36:Generated_Source\PSoC4/PGA_PM.c **** *
  37:Generated_Source\PSoC4/PGA_PM.c **** *  Empty function. Included for consistency with other components.
  38:Generated_Source\PSoC4/PGA_PM.c **** *
  39:Generated_Source\PSoC4/PGA_PM.c **** *******************************************************************************/
  40:Generated_Source\PSoC4/PGA_PM.c **** void PGA_RestoreConfig(void)
  41:Generated_Source\PSoC4/PGA_PM.c **** {
  47              		.loc 1 41 0
  48              		.cfi_startproc
  49              		@ args = 0, pretend = 0, frame = 0
  50              		@ frame_needed = 0, uses_anonymous_args = 0
  51              		@ link register save eliminated.
  42:Generated_Source\PSoC4/PGA_PM.c ****     /* Nothing to restore */
  43:Generated_Source\PSoC4/PGA_PM.c **** }
  52              		.loc 1 43 0
  53              		@ sp needed
  54 0000 7047     		bx	lr
  55              		.cfi_endproc
  56              	.LFE1:
  57              		.size	PGA_RestoreConfig, .-PGA_RestoreConfig
  58 0002 C046     		.section	.text.PGA_Sleep,"ax",%progbits
  59              		.align	2
  60              		.global	PGA_Sleep
  61              		.code	16
  62              		.thumb_func
  63              		.type	PGA_Sleep, %function
  64              	PGA_Sleep:
  65              	.LFB2:
  44:Generated_Source\PSoC4/PGA_PM.c **** 
  45:Generated_Source\PSoC4/PGA_PM.c **** 
  46:Generated_Source\PSoC4/PGA_PM.c **** /*******************************************************************************   
  47:Generated_Source\PSoC4/PGA_PM.c **** * Function Name: PGA_Sleep
  48:Generated_Source\PSoC4/PGA_PM.c **** ****************************************************************************//**
  49:Generated_Source\PSoC4/PGA_PM.c **** *
ARM GAS  C:\Users\GCRIST~1\AppData\Local\Temp\ccEjIM8R.s 			page 3


  50:Generated_Source\PSoC4/PGA_PM.c **** *  When the "Deep sleep operation" is disabled then the function disables 
  51:Generated_Source\PSoC4/PGA_PM.c **** *  component's operation and saves its configuration. Should be called 
  52:Generated_Source\PSoC4/PGA_PM.c **** *  just prior to entering sleep.
  53:Generated_Source\PSoC4/PGA_PM.c **** *  When the "Deep sleep operation" is enabled then the function does nothing
  54:Generated_Source\PSoC4/PGA_PM.c **** *  and the component continues to operate during Deep Sleep state.
  55:Generated_Source\PSoC4/PGA_PM.c **** *
  56:Generated_Source\PSoC4/PGA_PM.c **** *  \internal
  57:Generated_Source\PSoC4/PGA_PM.c **** *   The PGA_backup.enableState is modified 
  58:Generated_Source\PSoC4/PGA_PM.c **** *   depending on the enable state of the block before entering to sleep mode.
  59:Generated_Source\PSoC4/PGA_PM.c **** *
  60:Generated_Source\PSoC4/PGA_PM.c **** *******************************************************************************/
  61:Generated_Source\PSoC4/PGA_PM.c **** void PGA_Sleep(void)
  62:Generated_Source\PSoC4/PGA_PM.c **** {
  66              		.loc 1 62 0
  67              		.cfi_startproc
  68              		@ args = 0, pretend = 0, frame = 0
  69              		@ frame_needed = 0, uses_anonymous_args = 0
  70 0000 10B5     		push	{r4, lr}
  71              		.cfi_def_cfa_offset 8
  72              		.cfi_offset 4, -8
  73              		.cfi_offset 14, -4
  63:Generated_Source\PSoC4/PGA_PM.c ****     #if(!PGA_CHECK_DEEPSLEEP_SUPPORT)
  64:Generated_Source\PSoC4/PGA_PM.c ****         if((PGA_OA_RES_CTRL_REG & PGA_OA_PWR_MODE_MASK) != 0u)
  74              		.loc 1 64 0
  75 0002 094B     		ldr	r3, .L6
  76 0004 1B68     		ldr	r3, [r3]
  77 0006 9B07     		lsls	r3, r3, #30
  78 0008 08D0     		beq	.L4
  65:Generated_Source\PSoC4/PGA_PM.c ****         {
  66:Generated_Source\PSoC4/PGA_PM.c ****             PGA_internalGainPower |= PGA_ENABLED;
  79              		.loc 1 66 0
  80 000a 084A     		ldr	r2, .L6+4
  81 000c 8023     		movs	r3, #128
  82 000e 1B06     		lsls	r3, r3, #24
  83 0010 1168     		ldr	r1, [r2]
  84 0012 0B43     		orrs	r3, r1
  85 0014 1360     		str	r3, [r2]
  67:Generated_Source\PSoC4/PGA_PM.c ****             PGA_Stop();
  86              		.loc 1 67 0
  87 0016 FFF7FEFF 		bl	PGA_Stop
  88              	.LVL0:
  89 001a 04E0     		b	.L3
  90              	.L4:
  68:Generated_Source\PSoC4/PGA_PM.c ****         }
  69:Generated_Source\PSoC4/PGA_PM.c ****         else /* The component is disabled */
  70:Generated_Source\PSoC4/PGA_PM.c ****         {
  71:Generated_Source\PSoC4/PGA_PM.c ****             PGA_internalGainPower &= (uint32) ~PGA_ENABLED;
  91              		.loc 1 71 0
  92 001c 034A     		ldr	r2, .L6+4
  93 001e 1368     		ldr	r3, [r2]
  94 0020 5B00     		lsls	r3, r3, #1
  95 0022 5B08     		lsrs	r3, r3, #1
  96 0024 1360     		str	r3, [r2]
  97              	.L3:
  72:Generated_Source\PSoC4/PGA_PM.c ****         }
  73:Generated_Source\PSoC4/PGA_PM.c ****         /* Save the configuration */
  74:Generated_Source\PSoC4/PGA_PM.c ****         PGA_SaveConfig();
ARM GAS  C:\Users\GCRIST~1\AppData\Local\Temp\ccEjIM8R.s 			page 4


  75:Generated_Source\PSoC4/PGA_PM.c ****     #endif /* (PGA_CHECK_DEEPSLEEP_SUPPORT) */
  76:Generated_Source\PSoC4/PGA_PM.c **** }
  98              		.loc 1 76 0
  99              		@ sp needed
 100 0026 10BD     		pop	{r4, pc}
 101              	.L7:
 102              		.align	2
 103              	.L6:
 104 0028 04003040 		.word	1076887556
 105 002c 00000000 		.word	PGA_internalGainPower
 106              		.cfi_endproc
 107              	.LFE2:
 108              		.size	PGA_Sleep, .-PGA_Sleep
 109              		.section	.text.PGA_Wakeup,"ax",%progbits
 110              		.align	2
 111              		.global	PGA_Wakeup
 112              		.code	16
 113              		.thumb_func
 114              		.type	PGA_Wakeup, %function
 115              	PGA_Wakeup:
 116              	.LFB3:
  77:Generated_Source\PSoC4/PGA_PM.c **** 
  78:Generated_Source\PSoC4/PGA_PM.c **** 
  79:Generated_Source\PSoC4/PGA_PM.c **** /*******************************************************************************
  80:Generated_Source\PSoC4/PGA_PM.c **** * Function Name: PGA_Wakeup
  81:Generated_Source\PSoC4/PGA_PM.c **** ****************************************************************************//**
  82:Generated_Source\PSoC4/PGA_PM.c **** *
  83:Generated_Source\PSoC4/PGA_PM.c **** *  When the "Deep sleep operation" is disabled then the function enables
  84:Generated_Source\PSoC4/PGA_PM.c **** *  block's operation and restores its configuration. Should be called
  85:Generated_Source\PSoC4/PGA_PM.c **** *  just after awaking from sleep.
  86:Generated_Source\PSoC4/PGA_PM.c **** *  When the "Deep sleep operation" is enabled then the function does nothing
  87:Generated_Source\PSoC4/PGA_PM.c **** *  and the component continues to operate during Active state.
  88:Generated_Source\PSoC4/PGA_PM.c **** *
  89:Generated_Source\PSoC4/PGA_PM.c **** *  \internal
  90:Generated_Source\PSoC4/PGA_PM.c **** *   The PGA_backup.enableState is used to 
  91:Generated_Source\PSoC4/PGA_PM.c **** *   restore the enable state of block after wakeup from sleep mode.
  92:Generated_Source\PSoC4/PGA_PM.c **** * 
  93:Generated_Source\PSoC4/PGA_PM.c **** *******************************************************************************/
  94:Generated_Source\PSoC4/PGA_PM.c **** void PGA_Wakeup(void)
  95:Generated_Source\PSoC4/PGA_PM.c **** {
 117              		.loc 1 95 0
 118              		.cfi_startproc
 119              		@ args = 0, pretend = 0, frame = 0
 120              		@ frame_needed = 0, uses_anonymous_args = 0
 121 0000 10B5     		push	{r4, lr}
 122              		.cfi_def_cfa_offset 8
 123              		.cfi_offset 4, -8
 124              		.cfi_offset 14, -4
  96:Generated_Source\PSoC4/PGA_PM.c ****     #if(!PGA_CHECK_DEEPSLEEP_SUPPORT)
  97:Generated_Source\PSoC4/PGA_PM.c ****         /* Restore the configurations */
  98:Generated_Source\PSoC4/PGA_PM.c ****         PGA_RestoreConfig();
  99:Generated_Source\PSoC4/PGA_PM.c ****         /* Enables the component operation */
 100:Generated_Source\PSoC4/PGA_PM.c ****         if((PGA_internalGainPower & PGA_ENABLED) != 0u)
 125              		.loc 1 100 0
 126 0002 034B     		ldr	r3, .L10
 127 0004 1B68     		ldr	r3, [r3]
 128 0006 002B     		cmp	r3, #0
ARM GAS  C:\Users\GCRIST~1\AppData\Local\Temp\ccEjIM8R.s 			page 5


 129 0008 01DA     		bge	.L8
 101:Generated_Source\PSoC4/PGA_PM.c ****         {
 102:Generated_Source\PSoC4/PGA_PM.c ****             PGA_Enable();
 130              		.loc 1 102 0
 131 000a FFF7FEFF 		bl	PGA_Enable
 132              	.LVL1:
 133              	.L8:
 103:Generated_Source\PSoC4/PGA_PM.c ****         } /* Do nothing if component was disabled before */
 104:Generated_Source\PSoC4/PGA_PM.c ****     #endif /* (PGA_CHECK_DEEPSLEEP_SUPPORT) */
 105:Generated_Source\PSoC4/PGA_PM.c **** }
 134              		.loc 1 105 0
 135              		@ sp needed
 136 000e 10BD     		pop	{r4, pc}
 137              	.L11:
 138              		.align	2
 139              	.L10:
 140 0010 00000000 		.word	PGA_internalGainPower
 141              		.cfi_endproc
 142              	.LFE3:
 143              		.size	PGA_Wakeup, .-PGA_Wakeup
 144              		.text
 145              	.Letext0:
 146              		.file 2 "Generated_Source\\PSoC4\\cytypes.h"
 147              		.file 3 "Generated_Source\\PSoC4\\PGA.h"
 148              		.file 4 "Generated_Source\\PSoC4\\PGA_PVT.h"