ARM GAS  C:\Users\GCRIST~1\AppData\Local\Temp\cc2n5swv.s 			page 1


   1              		.syntax unified
   2              		.cpu cortex-m0plus
   3              		.fpu softvfp
   4              		.eabi_attribute 20, 1
   5              		.eabi_attribute 21, 1
   6              		.eabi_attribute 23, 3
   7              		.eabi_attribute 24, 1
   8              		.eabi_attribute 25, 1
   9              		.eabi_attribute 26, 1
  10              		.eabi_attribute 30, 1
  11              		.eabi_attribute 34, 0
  12              		.eabi_attribute 18, 4
  13              		.thumb
  14              		.syntax unified
  15              		.file	"Thermocouple_1.c"
  16              		.text
  17              	.Ltext0:
  18              		.cfi_sections	.debug_frame
  19              		.global	__aeabi_lmul
  20              		.section	.text.Thermocouple_1_MultShift24,"ax",%progbits
  21              		.align	2
  22              		.global	Thermocouple_1_MultShift24
  23              		.code	16
  24              		.thumb_func
  25              		.type	Thermocouple_1_MultShift24, %function
  26              	Thermocouple_1_MultShift24:
  27              	.LFB1:
  28              		.file 1 "Generated_Source\\PSoC4\\Thermocouple_1.c"
   1:Generated_Source\PSoC4/Thermocouple_1.c **** /*******************************************************************************
   2:Generated_Source\PSoC4/Thermocouple_1.c **** * File Name: Thermocouple_1.c
   3:Generated_Source\PSoC4/Thermocouple_1.c **** * Version 1.20
   4:Generated_Source\PSoC4/Thermocouple_1.c **** *
   5:Generated_Source\PSoC4/Thermocouple_1.c **** * Description:
   6:Generated_Source\PSoC4/Thermocouple_1.c **** *  This file provides the source code to the API for the Thermocouple_1
   7:Generated_Source\PSoC4/Thermocouple_1.c **** *  component
   8:Generated_Source\PSoC4/Thermocouple_1.c **** *
   9:Generated_Source\PSoC4/Thermocouple_1.c **** * Note:
  10:Generated_Source\PSoC4/Thermocouple_1.c **** *  None
  11:Generated_Source\PSoC4/Thermocouple_1.c **** *
  12:Generated_Source\PSoC4/Thermocouple_1.c **** ********************************************************************************
  13:Generated_Source\PSoC4/Thermocouple_1.c **** * Copyright 2012-2013, Cypress Semiconductor Corporation.  All rights reserved.
  14:Generated_Source\PSoC4/Thermocouple_1.c **** * You may use this file only in accordance with the license, terms, conditions,
  15:Generated_Source\PSoC4/Thermocouple_1.c **** * disclaimers, and limitations in the end user license agreement accompanying
  16:Generated_Source\PSoC4/Thermocouple_1.c **** * the software package with which this file was provided.
  17:Generated_Source\PSoC4/Thermocouple_1.c **** *******************************************************************************/
  18:Generated_Source\PSoC4/Thermocouple_1.c **** 
  19:Generated_Source\PSoC4/Thermocouple_1.c **** #include "Thermocouple_1.h"
  20:Generated_Source\PSoC4/Thermocouple_1.c **** 
  21:Generated_Source\PSoC4/Thermocouple_1.c **** #if(!CY_PSOC3)
  22:Generated_Source\PSoC4/Thermocouple_1.c **** 
  23:Generated_Source\PSoC4/Thermocouple_1.c ****     /*******************************************************************************
  24:Generated_Source\PSoC4/Thermocouple_1.c ****     * Function Name: Thermocouple_1_MultShift24
  25:Generated_Source\PSoC4/Thermocouple_1.c ****     ********************************************************************************
  26:Generated_Source\PSoC4/Thermocouple_1.c ****     *
  27:Generated_Source\PSoC4/Thermocouple_1.c ****     * Summary:
  28:Generated_Source\PSoC4/Thermocouple_1.c ****     *  Performs the math function (op1 * op2) >> 24 using 64 bit arithmetic without
  29:Generated_Source\PSoC4/Thermocouple_1.c ****     *  any loss of precision and without overflow.
ARM GAS  C:\Users\GCRIST~1\AppData\Local\Temp\cc2n5swv.s 			page 2


  30:Generated_Source\PSoC4/Thermocouple_1.c ****     *
  31:Generated_Source\PSoC4/Thermocouple_1.c ****     * Parameters:
  32:Generated_Source\PSoC4/Thermocouple_1.c ****     *  op1: Signed 32-bit operand
  33:Generated_Source\PSoC4/Thermocouple_1.c ****     *  op2: Signed 24-bit operand
  34:Generated_Source\PSoC4/Thermocouple_1.c ****     *
  35:Generated_Source\PSoC4/Thermocouple_1.c ****     * Return:
  36:Generated_Source\PSoC4/Thermocouple_1.c ****     *  Signed 32-bit result of the math calculation
  37:Generated_Source\PSoC4/Thermocouple_1.c ****     *
  38:Generated_Source\PSoC4/Thermocouple_1.c ****     *******************************************************************************/
  39:Generated_Source\PSoC4/Thermocouple_1.c ****     int32 Thermocouple_1_MultShift24(int32 op1, int32 op2) 
  40:Generated_Source\PSoC4/Thermocouple_1.c ****     {
  29              		.loc 1 40 0
  30              		.cfi_startproc
  31              		@ args = 0, pretend = 0, frame = 0
  32              		@ frame_needed = 0, uses_anonymous_args = 0
  33              	.LVL0:
  34 0000 10B5     		push	{r4, lr}
  35              		.cfi_def_cfa_offset 8
  36              		.cfi_offset 4, -8
  37              		.cfi_offset 14, -4
  38 0002 0A00     		movs	r2, r1
  39              	.LVL1:
  41:Generated_Source\PSoC4/Thermocouple_1.c ****         int64 result=0;
  42:Generated_Source\PSoC4/Thermocouple_1.c **** 
  43:Generated_Source\PSoC4/Thermocouple_1.c ****         result = (int64)op1 * (int64)op2;
  40              		.loc 1 43 0
  41 0004 C117     		asrs	r1, r0, #31
  42              	.LVL2:
  43 0006 D317     		asrs	r3, r2, #31
  44 0008 FFF7FEFF 		bl	__aeabi_lmul
  45              	.LVL3:
  44:Generated_Source\PSoC4/Thermocouple_1.c ****         if (result < 0)
  46              		.loc 1 44 0
  47 000c 0029     		cmp	r1, #0
  48 000e 0BDA     		bge	.L2
  45:Generated_Source\PSoC4/Thermocouple_1.c ****         {
  46:Generated_Source\PSoC4/Thermocouple_1.c ****             result = -result;
  49              		.loc 1 46 0
  50 0010 0023     		movs	r3, #0
  51 0012 4242     		rsbs	r2, r0, #0
  52 0014 8B41     		sbcs	r3, r1
  53              	.LVL4:
  47:Generated_Source\PSoC4/Thermocouple_1.c ****             result = (int32)((uint64)((uint64)result >> Thermocouple_1_24BIT_SHIFTING));
  54              		.loc 1 47 0
  55 0016 1B02     		lsls	r3, r3, #8
  56 0018 120E     		lsrs	r2, r2, #24
  57              	.LVL5:
  58 001a 1A43     		orrs	r2, r3
  59 001c 1000     		movs	r0, r2
  60              	.LVL6:
  61 001e D117     		asrs	r1, r2, #31
  62              	.LVL7:
  48:Generated_Source\PSoC4/Thermocouple_1.c ****             result = -result;
  63              		.loc 1 48 0
  64 0020 0023     		movs	r3, #0
  65 0022 4242     		rsbs	r2, r0, #0
  66 0024 8B41     		sbcs	r3, r1
ARM GAS  C:\Users\GCRIST~1\AppData\Local\Temp\cc2n5swv.s 			page 3


  67              	.LVL8:
  68 0026 03E0     		b	.L4
  69              	.LVL9:
  70              	.L2:
  49:Generated_Source\PSoC4/Thermocouple_1.c ****         }
  50:Generated_Source\PSoC4/Thermocouple_1.c ****         else
  51:Generated_Source\PSoC4/Thermocouple_1.c ****         {
  52:Generated_Source\PSoC4/Thermocouple_1.c ****             result = (int32)((uint64)((uint64)result >> Thermocouple_1_24BIT_SHIFTING));
  71              		.loc 1 52 0
  72 0028 0B02     		lsls	r3, r1, #8
  73 002a 000E     		lsrs	r0, r0, #24
  74              	.LVL10:
  75 002c 1843     		orrs	r0, r3
  76 002e 0200     		movs	r2, r0
  77              	.L4:
  53:Generated_Source\PSoC4/Thermocouple_1.c ****         }
  54:Generated_Source\PSoC4/Thermocouple_1.c ****         return (result);
  55:Generated_Source\PSoC4/Thermocouple_1.c ****     }        
  78              		.loc 1 55 0
  79 0030 1000     		movs	r0, r2
  80              		@ sp needed
  81 0032 10BD     		pop	{r4, pc}
  82              		.cfi_endproc
  83              	.LFE1:
  84              		.size	Thermocouple_1_MultShift24, .-Thermocouple_1_MultShift24
  85              		.section	.text.Thermocouple_1_GetTemperature,"ax",%progbits
  86              		.align	2
  87              		.global	Thermocouple_1_GetTemperature
  88              		.code	16
  89              		.thumb_func
  90              		.type	Thermocouple_1_GetTemperature, %function
  91              	Thermocouple_1_GetTemperature:
  92              	.LFB2:
  56:Generated_Source\PSoC4/Thermocouple_1.c **** #endif /* End (!CY_PSOC3) */
  57:Generated_Source\PSoC4/Thermocouple_1.c **** 
  58:Generated_Source\PSoC4/Thermocouple_1.c **** 
  59:Generated_Source\PSoC4/Thermocouple_1.c **** /*******************************************************************************
  60:Generated_Source\PSoC4/Thermocouple_1.c **** * Function Name: Thermocouple_1_GetTemperature
  61:Generated_Source\PSoC4/Thermocouple_1.c **** ********************************************************************************
  62:Generated_Source\PSoC4/Thermocouple_1.c **** *
  63:Generated_Source\PSoC4/Thermocouple_1.c **** * Summary:
  64:Generated_Source\PSoC4/Thermocouple_1.c **** *  This function takes thermocouple voltage in microvolt as i/p and calculates
  65:Generated_Source\PSoC4/Thermocouple_1.c **** *  temperature corresponding to the thermocouple voltage. The order of the
  66:Generated_Source\PSoC4/Thermocouple_1.c **** *  polynomial and the polynomial coefficients used to convert voltage to
  67:Generated_Source\PSoC4/Thermocouple_1.c **** *  temperature are dependent on the type of thermocouple selected.
  68:Generated_Source\PSoC4/Thermocouple_1.c **** *
  69:Generated_Source\PSoC4/Thermocouple_1.c **** * Parameters:
  70:Generated_Source\PSoC4/Thermocouple_1.c **** *  int32 voltage : Thermocouple voltage measured in microvolts.
  71:Generated_Source\PSoC4/Thermocouple_1.c **** *
  72:Generated_Source\PSoC4/Thermocouple_1.c **** * Return:
  73:Generated_Source\PSoC4/Thermocouple_1.c **** *  int32 : Temperature in 1/100 degree C
  74:Generated_Source\PSoC4/Thermocouple_1.c **** *
  75:Generated_Source\PSoC4/Thermocouple_1.c **** *******************************************************************************/
  76:Generated_Source\PSoC4/Thermocouple_1.c **** int32 Thermocouple_1_GetTemperature(int32 voltage) 
  77:Generated_Source\PSoC4/Thermocouple_1.c **** 
  78:Generated_Source\PSoC4/Thermocouple_1.c **** #if(CY_PSOC3)
  79:Generated_Source\PSoC4/Thermocouple_1.c **** {
ARM GAS  C:\Users\GCRIST~1\AppData\Local\Temp\cc2n5swv.s 			page 4


  80:Generated_Source\PSoC4/Thermocouple_1.c **** 
  81:Generated_Source\PSoC4/Thermocouple_1.c ****     /***************************************
  82:Generated_Source\PSoC4/Thermocouple_1.c ****     *  Customizer Generated Coefficients
  83:Generated_Source\PSoC4/Thermocouple_1.c ****     ***************************************/
  84:Generated_Source\PSoC4/Thermocouple_1.c ****     const int32 CYCODE Thermocouple_1_coeffVT[][3] = {{0, 0, -1687114},
  85:Generated_Source\PSoC4/Thermocouple_1.c ****                                                   {2639629, 164388, 40518839},
  86:Generated_Source\PSoC4/Thermocouple_1.c ****                                                   {-1001834, 16879, -90491511},
  87:Generated_Source\PSoC4/Thermocouple_1.c ****                                                   {-7623495, -1761422, 196887684},
  88:Generated_Source\PSoC4/Thermocouple_1.c ****                                                   {-51750922, 19173707, -227871065},
  89:Generated_Source\PSoC4/Thermocouple_1.c ****                                                   {-176344390, -92787626, 136207339},
  90:Generated_Source\PSoC4/Thermocouple_1.c ****                                                   {-335143805, 242736174, -31547361},
  91:Generated_Source\PSoC4/Thermocouple_1.c ****                                                   {-331192671, -358027528, 0},
  92:Generated_Source\PSoC4/Thermocouple_1.c ****                                                   {-134793524, 281193929, 0},
  93:Generated_Source\PSoC4/Thermocouple_1.c ****                                                   {0, -91707895, 0}};
  94:Generated_Source\PSoC4/Thermocouple_1.c **** 
  95:Generated_Source\PSoC4/Thermocouple_1.c **** const int32 CYCODE Thermocouple_1_voltRange[2] = {0, 20644};
  96:Generated_Source\PSoC4/Thermocouple_1.c **** 
  97:Generated_Source\PSoC4/Thermocouple_1.c **** const int8 CYCODE Thermocouple_1_xScaleVT[3] = {13, 15, 16};
  98:Generated_Source\PSoC4/Thermocouple_1.c **** const int8 CYCODE Thermocouple_1_coefScaleVT[3] = {7, 1, 7};
  99:Generated_Source\PSoC4/Thermocouple_1.c **** 
 100:Generated_Source\PSoC4/Thermocouple_1.c ****     /* Variable to store temperature */
 101:Generated_Source\PSoC4/Thermocouple_1.c ****     float32 temp=0.0f;
 102:Generated_Source\PSoC4/Thermocouple_1.c ****     float32 voltageNorm=0.0f;
 103:Generated_Source\PSoC4/Thermocouple_1.c ****     uint8 i=0u;
 104:Generated_Source\PSoC4/Thermocouple_1.c **** 
 105:Generated_Source\PSoC4/Thermocouple_1.c ****     #if (Thermocouple_1_VT_RANGE_LEN == Thermocouple_1_THREE)
 106:Generated_Source\PSoC4/Thermocouple_1.c ****     {
 107:Generated_Source\PSoC4/Thermocouple_1.c ****         voltageNorm = (float32)voltage;
 108:Generated_Source\PSoC4/Thermocouple_1.c **** 
 109:Generated_Source\PSoC4/Thermocouple_1.c ****         if(voltage < Thermocouple_1_voltRange[Thermocouple_1_RANGE_MAS_0] )
 110:Generated_Source\PSoC4/Thermocouple_1.c ****         {
 111:Generated_Source\PSoC4/Thermocouple_1.c ****             for (i=Thermocouple_1_ORDER_VT - 1u; i > 0u; i--)
 112:Generated_Source\PSoC4/Thermocouple_1.c ****             {
 113:Generated_Source\PSoC4/Thermocouple_1.c ****                 temp = (temp + Thermocouple_1_coeffVT[i][Thermocouple_1_RANGE_MAS_0]) * voltageNorm
 114:Generated_Source\PSoC4/Thermocouple_1.c ****             }
 115:Generated_Source\PSoC4/Thermocouple_1.c ****             temp = (temp + Thermocouple_1_coeffVT[Thermocouple_1_FIRST_EL_MAS][Thermocouple_1_RANGE
 116:Generated_Source\PSoC4/Thermocouple_1.c ****         }
 117:Generated_Source\PSoC4/Thermocouple_1.c **** 
 118:Generated_Source\PSoC4/Thermocouple_1.c ****         else if(voltage <= Thermocouple_1_voltRange[Thermocouple_1_RANGE_MAS_1] )
 119:Generated_Source\PSoC4/Thermocouple_1.c ****         {
 120:Generated_Source\PSoC4/Thermocouple_1.c ****             for (i=Thermocouple_1_ORDER_VT - 1u; i > 0u; i--)
 121:Generated_Source\PSoC4/Thermocouple_1.c ****             {
 122:Generated_Source\PSoC4/Thermocouple_1.c ****                 temp = (temp + Thermocouple_1_coeffVT[i][Thermocouple_1_RANGE_MAS_1]) * voltageNorm
 123:Generated_Source\PSoC4/Thermocouple_1.c ****             }
 124:Generated_Source\PSoC4/Thermocouple_1.c ****             temp = (temp + Thermocouple_1_coeffVT[Thermocouple_1_FIRST_EL_MAS][Thermocouple_1_RANGE
 125:Generated_Source\PSoC4/Thermocouple_1.c ****         }
 126:Generated_Source\PSoC4/Thermocouple_1.c **** 
 127:Generated_Source\PSoC4/Thermocouple_1.c ****         else if(voltage <= Thermocouple_1_voltRange[Thermocouple_1_RANGE_MAS_2] )
 128:Generated_Source\PSoC4/Thermocouple_1.c ****         {
 129:Generated_Source\PSoC4/Thermocouple_1.c ****             for (i=Thermocouple_1_ORDER_VT - 1u; i > 0u; i--)
 130:Generated_Source\PSoC4/Thermocouple_1.c ****             {
 131:Generated_Source\PSoC4/Thermocouple_1.c ****                 temp = (temp + Thermocouple_1_coeffVT[i][Thermocouple_1_RANGE_MAS_2]) * voltageNorm
 132:Generated_Source\PSoC4/Thermocouple_1.c ****             }
 133:Generated_Source\PSoC4/Thermocouple_1.c ****             temp = (temp + Thermocouple_1_coeffVT[Thermocouple_1_FIRST_EL_MAS][Thermocouple_1_RANGE
 134:Generated_Source\PSoC4/Thermocouple_1.c ****         }
 135:Generated_Source\PSoC4/Thermocouple_1.c **** 
 136:Generated_Source\PSoC4/Thermocouple_1.c ****         else
ARM GAS  C:\Users\GCRIST~1\AppData\Local\Temp\cc2n5swv.s 			page 5


 137:Generated_Source\PSoC4/Thermocouple_1.c ****         {
 138:Generated_Source\PSoC4/Thermocouple_1.c ****             for (i=Thermocouple_1_ORDER_VT - 1u; i > 0u; i--)
 139:Generated_Source\PSoC4/Thermocouple_1.c ****             {
 140:Generated_Source\PSoC4/Thermocouple_1.c ****                 temp = (temp + Thermocouple_1_coeffVT[i][Thermocouple_1_RANGE_MAS_3]) * voltageNorm
 141:Generated_Source\PSoC4/Thermocouple_1.c ****             }
 142:Generated_Source\PSoC4/Thermocouple_1.c ****             temp = (temp + Thermocouple_1_coeffVT[Thermocouple_1_FIRST_EL_MAS][Thermocouple_1_RANGE
 143:Generated_Source\PSoC4/Thermocouple_1.c ****         }
 144:Generated_Source\PSoC4/Thermocouple_1.c ****     }
 145:Generated_Source\PSoC4/Thermocouple_1.c **** 
 146:Generated_Source\PSoC4/Thermocouple_1.c ****     #else
 147:Generated_Source\PSoC4/Thermocouple_1.c ****     {
 148:Generated_Source\PSoC4/Thermocouple_1.c ****         voltageNorm = (float32)voltage;
 149:Generated_Source\PSoC4/Thermocouple_1.c **** 
 150:Generated_Source\PSoC4/Thermocouple_1.c ****         if(voltage < Thermocouple_1_voltRange[Thermocouple_1_RANGE_MAS_0] )
 151:Generated_Source\PSoC4/Thermocouple_1.c ****         {
 152:Generated_Source\PSoC4/Thermocouple_1.c ****             for (i=Thermocouple_1_ORDER_VT - 1u; i > 0u; i--)
 153:Generated_Source\PSoC4/Thermocouple_1.c ****             {
 154:Generated_Source\PSoC4/Thermocouple_1.c ****                 temp = (temp + Thermocouple_1_coeffVT[i][Thermocouple_1_RANGE_MAS_0]) * voltageNorm
 155:Generated_Source\PSoC4/Thermocouple_1.c ****             }
 156:Generated_Source\PSoC4/Thermocouple_1.c ****             temp = (temp + Thermocouple_1_coeffVT[Thermocouple_1_FIRST_EL_MAS][Thermocouple_1_RANGE
 157:Generated_Source\PSoC4/Thermocouple_1.c ****         }
 158:Generated_Source\PSoC4/Thermocouple_1.c **** 
 159:Generated_Source\PSoC4/Thermocouple_1.c ****         else if(voltage <= Thermocouple_1_voltRange[Thermocouple_1_RANGE_MAS_1] )
 160:Generated_Source\PSoC4/Thermocouple_1.c ****         {
 161:Generated_Source\PSoC4/Thermocouple_1.c ****             for (i=Thermocouple_1_ORDER_VT - 1u; i > 0u; i--)
 162:Generated_Source\PSoC4/Thermocouple_1.c ****             {
 163:Generated_Source\PSoC4/Thermocouple_1.c ****                 temp = (temp + Thermocouple_1_coeffVT[i][Thermocouple_1_RANGE_MAS_1]) * voltageNorm
 164:Generated_Source\PSoC4/Thermocouple_1.c ****             }
 165:Generated_Source\PSoC4/Thermocouple_1.c ****             temp = (temp + Thermocouple_1_coeffVT[Thermocouple_1_FIRST_EL_MAS][Thermocouple_1_RANGE
 166:Generated_Source\PSoC4/Thermocouple_1.c ****         }
 167:Generated_Source\PSoC4/Thermocouple_1.c **** 
 168:Generated_Source\PSoC4/Thermocouple_1.c ****         else
 169:Generated_Source\PSoC4/Thermocouple_1.c ****         {
 170:Generated_Source\PSoC4/Thermocouple_1.c ****             for (i=Thermocouple_1_ORDER_VT - 1u; i > 0u; i--)
 171:Generated_Source\PSoC4/Thermocouple_1.c ****             {
 172:Generated_Source\PSoC4/Thermocouple_1.c ****                 temp = (temp + Thermocouple_1_coeffVT[i][Thermocouple_1_RANGE_MAS_2]) * voltageNorm
 173:Generated_Source\PSoC4/Thermocouple_1.c ****             }
 174:Generated_Source\PSoC4/Thermocouple_1.c ****             temp = (temp + Thermocouple_1_coeffVT[Thermocouple_1_FIRST_EL_MAS][Thermocouple_1_RANGE
 175:Generated_Source\PSoC4/Thermocouple_1.c ****         }
 176:Generated_Source\PSoC4/Thermocouple_1.c ****     }
 177:Generated_Source\PSoC4/Thermocouple_1.c **** 
 178:Generated_Source\PSoC4/Thermocouple_1.c ****     #endif /* End  Thermocouple_1_VT_RANGE_LEN == Thermocouple_1_THREE */
 179:Generated_Source\PSoC4/Thermocouple_1.c **** 
 180:Generated_Source\PSoC4/Thermocouple_1.c ****     return ((int32)(temp));
 181:Generated_Source\PSoC4/Thermocouple_1.c **** }
 182:Generated_Source\PSoC4/Thermocouple_1.c **** #else
 183:Generated_Source\PSoC4/Thermocouple_1.c **** {
  93              		.loc 1 183 0
  94              		.cfi_startproc
  95              		@ args = 0, pretend = 0, frame = 120
  96              		@ frame_needed = 0, uses_anonymous_args = 0
  97              	.LVL11:
  98 0000 30B5     		push	{r4, r5, lr}
  99              		.cfi_def_cfa_offset 12
 100              		.cfi_offset 4, -12
 101              		.cfi_offset 5, -8
 102              		.cfi_offset 14, -4
ARM GAS  C:\Users\GCRIST~1\AppData\Local\Temp\cc2n5swv.s 			page 6


 103 0002 9FB0     		sub	sp, sp, #124
 104              		.cfi_def_cfa_offset 136
 105 0004 0500     		movs	r5, r0
 184:Generated_Source\PSoC4/Thermocouple_1.c **** 
 185:Generated_Source\PSoC4/Thermocouple_1.c ****     /***************************************
 186:Generated_Source\PSoC4/Thermocouple_1.c ****     *  Customizer Generated Coefficients
 187:Generated_Source\PSoC4/Thermocouple_1.c ****     ***************************************/
 188:Generated_Source\PSoC4/Thermocouple_1.c ****     const int32 CYCODE Thermocouple_1_coeffVT[][3] = {{0, 0, -1687114},
 106              		.loc 1 188 0
 107 0006 7822     		movs	r2, #120
 108 0008 3149     		ldr	r1, .L21
 109 000a 6846     		mov	r0, sp
 110              	.LVL12:
 111 000c FFF7FEFF 		bl	memcpy
 112              	.LVL13:
 189:Generated_Source\PSoC4/Thermocouple_1.c ****                                                   {2639629, 164388, 40518839},
 190:Generated_Source\PSoC4/Thermocouple_1.c ****                                                   {-1001834, 16879, -90491511},
 191:Generated_Source\PSoC4/Thermocouple_1.c ****                                                   {-7623495, -1761422, 196887684},
 192:Generated_Source\PSoC4/Thermocouple_1.c ****                                                   {-51750922, 19173707, -227871065},
 193:Generated_Source\PSoC4/Thermocouple_1.c ****                                                   {-176344390, -92787626, 136207339},
 194:Generated_Source\PSoC4/Thermocouple_1.c ****                                                   {-335143805, 242736174, -31547361},
 195:Generated_Source\PSoC4/Thermocouple_1.c ****                                                   {-331192671, -358027528, 0},
 196:Generated_Source\PSoC4/Thermocouple_1.c ****                                                   {-134793524, 281193929, 0},
 197:Generated_Source\PSoC4/Thermocouple_1.c ****                                                   {0, -91707895, 0}};
 198:Generated_Source\PSoC4/Thermocouple_1.c **** 
 199:Generated_Source\PSoC4/Thermocouple_1.c **** const int32 CYCODE Thermocouple_1_voltRange[2] = {0, 20644};
 200:Generated_Source\PSoC4/Thermocouple_1.c **** 
 201:Generated_Source\PSoC4/Thermocouple_1.c **** const int8 CYCODE Thermocouple_1_xScaleVT[3] = {13, 15, 16};
 202:Generated_Source\PSoC4/Thermocouple_1.c **** const int8 CYCODE Thermocouple_1_coefScaleVT[3] = {7, 1, 7};
 203:Generated_Source\PSoC4/Thermocouple_1.c **** 
 204:Generated_Source\PSoC4/Thermocouple_1.c ****     /* Variable to store temperature */
 205:Generated_Source\PSoC4/Thermocouple_1.c ****     int32 temp=0;
 206:Generated_Source\PSoC4/Thermocouple_1.c ****     uint8 i=0u;
 207:Generated_Source\PSoC4/Thermocouple_1.c **** 
 208:Generated_Source\PSoC4/Thermocouple_1.c ****     #if (Thermocouple_1_VT_RANGE_LEN == Thermocouple_1_THREE)
 209:Generated_Source\PSoC4/Thermocouple_1.c ****     {
 210:Generated_Source\PSoC4/Thermocouple_1.c ****         if(voltage < Thermocouple_1_voltRange[Thermocouple_1_RANGE_MAS_0] )
 211:Generated_Source\PSoC4/Thermocouple_1.c ****         {
 212:Generated_Source\PSoC4/Thermocouple_1.c ****             if (voltage < 0)
 213:Generated_Source\PSoC4/Thermocouple_1.c ****             {
 214:Generated_Source\PSoC4/Thermocouple_1.c ****                 voltage = -voltage;
 215:Generated_Source\PSoC4/Thermocouple_1.c ****                 voltage = (int32)((uint64)((uint64)voltage << 
 216:Generated_Source\PSoC4/Thermocouple_1.c ****                                                (Thermocouple_1_IN_NORMALIZATION_VT - 
 217:Generated_Source\PSoC4/Thermocouple_1.c ****                                                 Thermocouple_1_xScaleVT[Thermocouple_1_RANGE_MAS_0]
 218:Generated_Source\PSoC4/Thermocouple_1.c ****                 voltage = -voltage;
 219:Generated_Source\PSoC4/Thermocouple_1.c ****             }
 220:Generated_Source\PSoC4/Thermocouple_1.c ****             else
 221:Generated_Source\PSoC4/Thermocouple_1.c ****             {
 222:Generated_Source\PSoC4/Thermocouple_1.c ****                 voltage = (int32)((uint64)((uint64)voltage << 
 223:Generated_Source\PSoC4/Thermocouple_1.c ****                                                (Thermocouple_1_IN_NORMALIZATION_VT - 
 224:Generated_Source\PSoC4/Thermocouple_1.c ****                                                 Thermocouple_1_xScaleVT[Thermocouple_1_RANGE_MAS_0]
 225:Generated_Source\PSoC4/Thermocouple_1.c ****             }            
 226:Generated_Source\PSoC4/Thermocouple_1.c **** 
 227:Generated_Source\PSoC4/Thermocouple_1.c ****             for (i=Thermocouple_1_ORDER_VT - 1u; i > 0u; i--)
 228:Generated_Source\PSoC4/Thermocouple_1.c ****             {
 229:Generated_Source\PSoC4/Thermocouple_1.c ****                 temp = Thermocouple_1_MultShift24((Thermocouple_1_coeffVT[i][Thermocouple_1_RANGE_M
 230:Generated_Source\PSoC4/Thermocouple_1.c ****                        temp), voltage);
ARM GAS  C:\Users\GCRIST~1\AppData\Local\Temp\cc2n5swv.s 			page 7


 231:Generated_Source\PSoC4/Thermocouple_1.c ****             }
 232:Generated_Source\PSoC4/Thermocouple_1.c **** 
 233:Generated_Source\PSoC4/Thermocouple_1.c ****             if(Thermocouple_1_coefScaleVT[Thermocouple_1_RANGE_MAS_0] < 0)
 234:Generated_Source\PSoC4/Thermocouple_1.c ****             {
 235:Generated_Source\PSoC4/Thermocouple_1.c ****                 temp = (int32)((uint64)((uint64)(int32)(temp + 
 236:Generated_Source\PSoC4/Thermocouple_1.c ****                         Thermocouple_1_coeffVT[Thermocouple_1_FIRST_EL_MAS][Thermocouple_1_RANGE_MA
 237:Generated_Source\PSoC4/Thermocouple_1.c ****                         Thermocouple_1_coefScaleVT[Thermocouple_1_RANGE_MAS_0]));
 238:Generated_Source\PSoC4/Thermocouple_1.c ****             }
 239:Generated_Source\PSoC4/Thermocouple_1.c **** 
 240:Generated_Source\PSoC4/Thermocouple_1.c ****             else
 241:Generated_Source\PSoC4/Thermocouple_1.c ****             {
 242:Generated_Source\PSoC4/Thermocouple_1.c ****                 temp = (int32)((uint32)((uint64)(int32)(temp + 
 243:Generated_Source\PSoC4/Thermocouple_1.c ****                         Thermocouple_1_coeffVT[Thermocouple_1_FIRST_EL_MAS][Thermocouple_1_RANGE_MA
 244:Generated_Source\PSoC4/Thermocouple_1.c ****                         Thermocouple_1_coefScaleVT[Thermocouple_1_RANGE_MAS_0]));
 245:Generated_Source\PSoC4/Thermocouple_1.c ****             }
 246:Generated_Source\PSoC4/Thermocouple_1.c ****         }
 247:Generated_Source\PSoC4/Thermocouple_1.c **** 
 248:Generated_Source\PSoC4/Thermocouple_1.c ****         else if(voltage <= Thermocouple_1_voltRange[Thermocouple_1_RANGE_MAS_1] )
 249:Generated_Source\PSoC4/Thermocouple_1.c ****         {
 250:Generated_Source\PSoC4/Thermocouple_1.c ****             if (voltage < 0)
 251:Generated_Source\PSoC4/Thermocouple_1.c ****             {
 252:Generated_Source\PSoC4/Thermocouple_1.c ****                 voltage = -voltage;
 253:Generated_Source\PSoC4/Thermocouple_1.c ****                 voltage = (int32)((uint64)((uint64)voltage << 
 254:Generated_Source\PSoC4/Thermocouple_1.c ****                                                (Thermocouple_1_IN_NORMALIZATION_VT - 
 255:Generated_Source\PSoC4/Thermocouple_1.c ****                                                 Thermocouple_1_xScaleVT[Thermocouple_1_RANGE_MAS_1]
 256:Generated_Source\PSoC4/Thermocouple_1.c ****                 voltage = -voltage;
 257:Generated_Source\PSoC4/Thermocouple_1.c ****             }
 258:Generated_Source\PSoC4/Thermocouple_1.c ****             else
 259:Generated_Source\PSoC4/Thermocouple_1.c ****             {
 260:Generated_Source\PSoC4/Thermocouple_1.c ****                 voltage = (int32)((uint64)((uint64)voltage << 
 261:Generated_Source\PSoC4/Thermocouple_1.c ****                                                (Thermocouple_1_IN_NORMALIZATION_VT - 
 262:Generated_Source\PSoC4/Thermocouple_1.c ****                                                 Thermocouple_1_xScaleVT[Thermocouple_1_RANGE_MAS_1]
 263:Generated_Source\PSoC4/Thermocouple_1.c ****             }              
 264:Generated_Source\PSoC4/Thermocouple_1.c ****             
 265:Generated_Source\PSoC4/Thermocouple_1.c ****             for (i=Thermocouple_1_ORDER_VT - 1u; i > 0u; i--)
 266:Generated_Source\PSoC4/Thermocouple_1.c ****             {
 267:Generated_Source\PSoC4/Thermocouple_1.c ****                 temp = Thermocouple_1_MultShift24((Thermocouple_1_coeffVT[i][Thermocouple_1_RANGE_M
 268:Generated_Source\PSoC4/Thermocouple_1.c ****                        temp), voltage);
 269:Generated_Source\PSoC4/Thermocouple_1.c ****             }
 270:Generated_Source\PSoC4/Thermocouple_1.c **** 
 271:Generated_Source\PSoC4/Thermocouple_1.c ****             if(Thermocouple_1_coefScaleVT[Thermocouple_1_RANGE_MAS_1] < 0)
 272:Generated_Source\PSoC4/Thermocouple_1.c ****             {
 273:Generated_Source\PSoC4/Thermocouple_1.c ****                 temp = (int32)((uint64)((uint64)(int32)(temp + 
 274:Generated_Source\PSoC4/Thermocouple_1.c ****                         Thermocouple_1_coeffVT[Thermocouple_1_FIRST_EL_MAS][Thermocouple_1_RANGE_MA
 275:Generated_Source\PSoC4/Thermocouple_1.c ****                         Thermocouple_1_coefScaleVT[Thermocouple_1_RANGE_MAS_1]));
 276:Generated_Source\PSoC4/Thermocouple_1.c ****             }
 277:Generated_Source\PSoC4/Thermocouple_1.c **** 
 278:Generated_Source\PSoC4/Thermocouple_1.c ****             else
 279:Generated_Source\PSoC4/Thermocouple_1.c ****             {
 280:Generated_Source\PSoC4/Thermocouple_1.c ****                 temp = (int32)((uint32)((uint64)(int32)(temp + 
 281:Generated_Source\PSoC4/Thermocouple_1.c ****                         Thermocouple_1_coeffVT[Thermocouple_1_FIRST_EL_MAS][Thermocouple_1_RANGE_MA
 282:Generated_Source\PSoC4/Thermocouple_1.c ****                         Thermocouple_1_coefScaleVT[Thermocouple_1_RANGE_MAS_1]));
 283:Generated_Source\PSoC4/Thermocouple_1.c ****             }
 284:Generated_Source\PSoC4/Thermocouple_1.c **** 
 285:Generated_Source\PSoC4/Thermocouple_1.c ****         }
 286:Generated_Source\PSoC4/Thermocouple_1.c **** 
 287:Generated_Source\PSoC4/Thermocouple_1.c ****         else if(voltage <= Thermocouple_1_voltRange[Thermocouple_1_RANGE_MAS_2] )
ARM GAS  C:\Users\GCRIST~1\AppData\Local\Temp\cc2n5swv.s 			page 8


 288:Generated_Source\PSoC4/Thermocouple_1.c ****         {
 289:Generated_Source\PSoC4/Thermocouple_1.c ****             if (voltage < 0)
 290:Generated_Source\PSoC4/Thermocouple_1.c ****             {
 291:Generated_Source\PSoC4/Thermocouple_1.c ****                 voltage = -voltage;
 292:Generated_Source\PSoC4/Thermocouple_1.c ****                 voltage = (int32)((uint64)((uint64)voltage << 
 293:Generated_Source\PSoC4/Thermocouple_1.c ****                                                (Thermocouple_1_IN_NORMALIZATION_VT - 
 294:Generated_Source\PSoC4/Thermocouple_1.c ****                                                 Thermocouple_1_xScaleVT[Thermocouple_1_RANGE_MAS_2]
 295:Generated_Source\PSoC4/Thermocouple_1.c ****                 voltage = -voltage;
 296:Generated_Source\PSoC4/Thermocouple_1.c ****             }
 297:Generated_Source\PSoC4/Thermocouple_1.c ****             else
 298:Generated_Source\PSoC4/Thermocouple_1.c ****             {
 299:Generated_Source\PSoC4/Thermocouple_1.c ****                 voltage = (int32)((uint64)((uint64)voltage << 
 300:Generated_Source\PSoC4/Thermocouple_1.c ****                                                (Thermocouple_1_IN_NORMALIZATION_VT - 
 301:Generated_Source\PSoC4/Thermocouple_1.c ****                                                 Thermocouple_1_xScaleVT[Thermocouple_1_RANGE_MAS_2]
 302:Generated_Source\PSoC4/Thermocouple_1.c ****             }              
 303:Generated_Source\PSoC4/Thermocouple_1.c **** 
 304:Generated_Source\PSoC4/Thermocouple_1.c ****             for (i=Thermocouple_1_ORDER_VT - 1u; i > 0u; i--)
 305:Generated_Source\PSoC4/Thermocouple_1.c ****             {
 306:Generated_Source\PSoC4/Thermocouple_1.c ****                 temp = Thermocouple_1_MultShift24((Thermocouple_1_coeffVT[i][Thermocouple_1_RANGE_M
 307:Generated_Source\PSoC4/Thermocouple_1.c ****                        temp), voltage);
 308:Generated_Source\PSoC4/Thermocouple_1.c ****             }
 309:Generated_Source\PSoC4/Thermocouple_1.c **** 
 310:Generated_Source\PSoC4/Thermocouple_1.c ****             if(Thermocouple_1_coefScaleVT[Thermocouple_1_RANGE_MAS_2] < 0)
 311:Generated_Source\PSoC4/Thermocouple_1.c ****             {
 312:Generated_Source\PSoC4/Thermocouple_1.c ****                 temp = (int32)((uint64)((uint64)(int32)(temp + 
 313:Generated_Source\PSoC4/Thermocouple_1.c ****                         Thermocouple_1_coeffVT[Thermocouple_1_FIRST_EL_MAS][Thermocouple_1_RANGE_MA
 314:Generated_Source\PSoC4/Thermocouple_1.c ****                         Thermocouple_1_coefScaleVT[Thermocouple_1_RANGE_MAS_2]));
 315:Generated_Source\PSoC4/Thermocouple_1.c ****             }
 316:Generated_Source\PSoC4/Thermocouple_1.c **** 
 317:Generated_Source\PSoC4/Thermocouple_1.c ****             else
 318:Generated_Source\PSoC4/Thermocouple_1.c ****             {
 319:Generated_Source\PSoC4/Thermocouple_1.c ****                 temp = (int32)((uint32)((uint64)(int32)(temp + 
 320:Generated_Source\PSoC4/Thermocouple_1.c ****                         Thermocouple_1_coeffVT[Thermocouple_1_FIRST_EL_MAS][Thermocouple_1_RANGE_MA
 321:Generated_Source\PSoC4/Thermocouple_1.c ****                         Thermocouple_1_coefScaleVT[Thermocouple_1_RANGE_MAS_2]));
 322:Generated_Source\PSoC4/Thermocouple_1.c ****             }
 323:Generated_Source\PSoC4/Thermocouple_1.c ****         }
 324:Generated_Source\PSoC4/Thermocouple_1.c **** 
 325:Generated_Source\PSoC4/Thermocouple_1.c ****         else
 326:Generated_Source\PSoC4/Thermocouple_1.c ****         {
 327:Generated_Source\PSoC4/Thermocouple_1.c ****             if (voltage < 0)
 328:Generated_Source\PSoC4/Thermocouple_1.c ****             {
 329:Generated_Source\PSoC4/Thermocouple_1.c ****                 voltage = -voltage;
 330:Generated_Source\PSoC4/Thermocouple_1.c ****                 voltage = (int32)((uint64)((uint64)voltage << 
 331:Generated_Source\PSoC4/Thermocouple_1.c ****                                                (Thermocouple_1_IN_NORMALIZATION_VT - 
 332:Generated_Source\PSoC4/Thermocouple_1.c ****                                                 Thermocouple_1_xScaleVT[Thermocouple_1_RANGE_MAS_3]
 333:Generated_Source\PSoC4/Thermocouple_1.c ****                 voltage = -voltage;
 334:Generated_Source\PSoC4/Thermocouple_1.c ****             }
 335:Generated_Source\PSoC4/Thermocouple_1.c ****             else
 336:Generated_Source\PSoC4/Thermocouple_1.c ****             {
 337:Generated_Source\PSoC4/Thermocouple_1.c ****                 voltage = (int32)((uint64)((uint64)voltage << 
 338:Generated_Source\PSoC4/Thermocouple_1.c ****                                                (Thermocouple_1_IN_NORMALIZATION_VT - 
 339:Generated_Source\PSoC4/Thermocouple_1.c ****                                                 Thermocouple_1_xScaleVT[Thermocouple_1_RANGE_MAS_3]
 340:Generated_Source\PSoC4/Thermocouple_1.c ****             }              
 341:Generated_Source\PSoC4/Thermocouple_1.c **** 
 342:Generated_Source\PSoC4/Thermocouple_1.c ****             for (i=Thermocouple_1_ORDER_VT - 1u; i > 0u; i--)
 343:Generated_Source\PSoC4/Thermocouple_1.c ****             {
 344:Generated_Source\PSoC4/Thermocouple_1.c ****                 temp = Thermocouple_1_MultShift24((Thermocouple_1_coeffVT[i][Thermocouple_1_RANGE_M
ARM GAS  C:\Users\GCRIST~1\AppData\Local\Temp\cc2n5swv.s 			page 9


 345:Generated_Source\PSoC4/Thermocouple_1.c ****                        temp), voltage);
 346:Generated_Source\PSoC4/Thermocouple_1.c ****             }
 347:Generated_Source\PSoC4/Thermocouple_1.c **** 
 348:Generated_Source\PSoC4/Thermocouple_1.c ****             if(Thermocouple_1_coefScaleVT[Thermocouple_1_RANGE_MAS_3] < 0)
 349:Generated_Source\PSoC4/Thermocouple_1.c ****             {
 350:Generated_Source\PSoC4/Thermocouple_1.c ****                 temp = (int32)((uint64)((uint64)(int32)(temp + 
 351:Generated_Source\PSoC4/Thermocouple_1.c ****                         Thermocouple_1_coeffVT[Thermocouple_1_FIRST_EL_MAS][Thermocouple_1_RANGE_MA
 352:Generated_Source\PSoC4/Thermocouple_1.c ****                         Thermocouple_1_coefScaleVT[Thermocouple_1_RANGE_MAS_3]));
 353:Generated_Source\PSoC4/Thermocouple_1.c ****             }
 354:Generated_Source\PSoC4/Thermocouple_1.c **** 
 355:Generated_Source\PSoC4/Thermocouple_1.c ****             else
 356:Generated_Source\PSoC4/Thermocouple_1.c ****             {
 357:Generated_Source\PSoC4/Thermocouple_1.c ****                 temp = (int32)((uint32)((uint64)(int32)(temp + 
 358:Generated_Source\PSoC4/Thermocouple_1.c ****                         Thermocouple_1_coeffVT[Thermocouple_1_FIRST_EL_MAS][Thermocouple_1_RANGE_MA
 359:Generated_Source\PSoC4/Thermocouple_1.c ****                         Thermocouple_1_coefScaleVT[Thermocouple_1_RANGE_MAS_3]));
 360:Generated_Source\PSoC4/Thermocouple_1.c ****             }
 361:Generated_Source\PSoC4/Thermocouple_1.c ****         }
 362:Generated_Source\PSoC4/Thermocouple_1.c ****     }
 363:Generated_Source\PSoC4/Thermocouple_1.c **** 
 364:Generated_Source\PSoC4/Thermocouple_1.c ****     #else
 365:Generated_Source\PSoC4/Thermocouple_1.c ****     {
 366:Generated_Source\PSoC4/Thermocouple_1.c ****         if(voltage < Thermocouple_1_voltRange[Thermocouple_1_RANGE_MAS_0] )
 113              		.loc 1 366 0
 114 0010 002D     		cmp	r5, #0
 115 0012 1BDA     		bge	.L6
 367:Generated_Source\PSoC4/Thermocouple_1.c ****         {
 368:Generated_Source\PSoC4/Thermocouple_1.c ****             if (voltage < 0)
 116              		.loc 1 368 0
 117 0014 03DA     		bge	.L7
 369:Generated_Source\PSoC4/Thermocouple_1.c ****             {
 370:Generated_Source\PSoC4/Thermocouple_1.c ****                 voltage = -voltage;
 118              		.loc 1 370 0
 119 0016 6D42     		rsbs	r5, r5, #0
 120              	.LVL14:
 371:Generated_Source\PSoC4/Thermocouple_1.c ****                 voltage = (int32)((uint64)((uint64)voltage << 
 121              		.loc 1 371 0
 122 0018 ED02     		lsls	r5, r5, #11
 123              	.LVL15:
 372:Generated_Source\PSoC4/Thermocouple_1.c ****                                                (Thermocouple_1_IN_NORMALIZATION_VT - 
 373:Generated_Source\PSoC4/Thermocouple_1.c ****                                                 Thermocouple_1_xScaleVT[Thermocouple_1_RANGE_MAS_0]
 374:Generated_Source\PSoC4/Thermocouple_1.c ****                 voltage = -voltage;
 124              		.loc 1 374 0
 125 001a 6D42     		rsbs	r5, r5, #0
 126              	.LVL16:
 127 001c 00E0     		b	.L8
 128              	.L7:
 375:Generated_Source\PSoC4/Thermocouple_1.c ****             }
 376:Generated_Source\PSoC4/Thermocouple_1.c ****             else
 377:Generated_Source\PSoC4/Thermocouple_1.c ****             {
 378:Generated_Source\PSoC4/Thermocouple_1.c ****                 voltage = (int32)((uint64)((uint64)voltage << 
 129              		.loc 1 378 0
 130 001e ED02     		lsls	r5, r5, #11
 131              	.LVL17:
 132              	.L8:
 379:Generated_Source\PSoC4/Thermocouple_1.c ****                                                (Thermocouple_1_IN_NORMALIZATION_VT - 
 380:Generated_Source\PSoC4/Thermocouple_1.c ****                                                 Thermocouple_1_xScaleVT[Thermocouple_1_RANGE_MAS_0]
 381:Generated_Source\PSoC4/Thermocouple_1.c ****             }            
ARM GAS  C:\Users\GCRIST~1\AppData\Local\Temp\cc2n5swv.s 			page 10


 382:Generated_Source\PSoC4/Thermocouple_1.c **** 
 383:Generated_Source\PSoC4/Thermocouple_1.c ****             for (i=Thermocouple_1_ORDER_VT - 1u; i > 0u; i--)
 133              		.loc 1 383 0
 134 0020 0924     		movs	r4, #9
 205:Generated_Source\PSoC4/Thermocouple_1.c ****     uint8 i=0u;
 135              		.loc 1 205 0
 136 0022 0020     		movs	r0, #0
 137              		.loc 1 383 0
 138 0024 0AE0     		b	.L9
 139              	.LVL18:
 140              	.L10:
 384:Generated_Source\PSoC4/Thermocouple_1.c ****             {
 385:Generated_Source\PSoC4/Thermocouple_1.c ****                 temp = Thermocouple_1_MultShift24((Thermocouple_1_coeffVT[i][Thermocouple_1_RANGE_M
 141              		.loc 1 385 0 discriminator 3
 142 0026 6300     		lsls	r3, r4, #1
 143 0028 1B19     		adds	r3, r3, r4
 144 002a 9A00     		lsls	r2, r3, #2
 145 002c 6B46     		mov	r3, sp
 146 002e D358     		ldr	r3, [r2, r3]
 147 0030 C018     		adds	r0, r0, r3
 148              	.LVL19:
 149 0032 2900     		movs	r1, r5
 150 0034 FFF7FEFF 		bl	Thermocouple_1_MultShift24
 151              	.LVL20:
 383:Generated_Source\PSoC4/Thermocouple_1.c ****             {
 152              		.loc 1 383 0 discriminator 3
 153 0038 013C     		subs	r4, r4, #1
 154              	.LVL21:
 155 003a E4B2     		uxtb	r4, r4
 156              	.LVL22:
 157              	.L9:
 383:Generated_Source\PSoC4/Thermocouple_1.c ****             {
 158              		.loc 1 383 0 is_stmt 0 discriminator 1
 159 003c 002C     		cmp	r4, #0
 160 003e F2D1     		bne	.L10
 386:Generated_Source\PSoC4/Thermocouple_1.c ****                        temp), voltage);
 387:Generated_Source\PSoC4/Thermocouple_1.c ****             }
 388:Generated_Source\PSoC4/Thermocouple_1.c **** 
 389:Generated_Source\PSoC4/Thermocouple_1.c ****             if(Thermocouple_1_coefScaleVT[Thermocouple_1_RANGE_MAS_0] < 0)
 390:Generated_Source\PSoC4/Thermocouple_1.c ****             {
 391:Generated_Source\PSoC4/Thermocouple_1.c ****                 temp = (int32)((uint64)((uint64)(int32)(temp + 
 392:Generated_Source\PSoC4/Thermocouple_1.c ****                         Thermocouple_1_coeffVT[Thermocouple_1_FIRST_EL_MAS][Thermocouple_1_RANGE_MA
 393:Generated_Source\PSoC4/Thermocouple_1.c ****                         Thermocouple_1_coefScaleVT[Thermocouple_1_RANGE_MAS_0]));
 394:Generated_Source\PSoC4/Thermocouple_1.c ****             }
 395:Generated_Source\PSoC4/Thermocouple_1.c **** 
 396:Generated_Source\PSoC4/Thermocouple_1.c ****             else
 397:Generated_Source\PSoC4/Thermocouple_1.c ****             {
 398:Generated_Source\PSoC4/Thermocouple_1.c ****                 temp = (int32)((uint32)((uint64)(int32)(temp + 
 161              		.loc 1 398 0 is_stmt 1
 162 0040 C317     		asrs	r3, r0, #31
 399:Generated_Source\PSoC4/Thermocouple_1.c ****                         Thermocouple_1_coeffVT[Thermocouple_1_FIRST_EL_MAS][Thermocouple_1_RANGE_MA
 163              		.loc 1 399 0
 164 0042 5B06     		lsls	r3, r3, #25
 165 0044 C209     		lsrs	r2, r0, #7
 166 0046 1343     		orrs	r3, r2
 167 0048 1800     		movs	r0, r3
 168              	.LVL23:
ARM GAS  C:\Users\GCRIST~1\AppData\Local\Temp\cc2n5swv.s 			page 11


 169 004a 3EE0     		b	.L11
 170              	.LVL24:
 171              	.L6:
 400:Generated_Source\PSoC4/Thermocouple_1.c ****                         Thermocouple_1_coefScaleVT[Thermocouple_1_RANGE_MAS_0]));
 401:Generated_Source\PSoC4/Thermocouple_1.c ****             }
 402:Generated_Source\PSoC4/Thermocouple_1.c ****         }
 403:Generated_Source\PSoC4/Thermocouple_1.c **** 
 404:Generated_Source\PSoC4/Thermocouple_1.c ****         else if(voltage <= Thermocouple_1_voltRange[Thermocouple_1_RANGE_MAS_1] )
 172              		.loc 1 404 0
 173 004c 214B     		ldr	r3, .L21+4
 174 004e 9D42     		cmp	r5, r3
 175 0050 1CDC     		bgt	.L12
 405:Generated_Source\PSoC4/Thermocouple_1.c ****         {
 406:Generated_Source\PSoC4/Thermocouple_1.c ****             if (voltage < 0)
 176              		.loc 1 406 0
 177 0052 002D     		cmp	r5, #0
 178 0054 03DA     		bge	.L13
 407:Generated_Source\PSoC4/Thermocouple_1.c ****             {
 408:Generated_Source\PSoC4/Thermocouple_1.c ****                 voltage = -voltage;
 179              		.loc 1 408 0
 180 0056 6D42     		rsbs	r5, r5, #0
 181              	.LVL25:
 409:Generated_Source\PSoC4/Thermocouple_1.c ****                 voltage = (int32)((uint64)((uint64)voltage << 
 182              		.loc 1 409 0
 183 0058 6D02     		lsls	r5, r5, #9
 184              	.LVL26:
 410:Generated_Source\PSoC4/Thermocouple_1.c ****                                                (Thermocouple_1_IN_NORMALIZATION_VT - 
 411:Generated_Source\PSoC4/Thermocouple_1.c ****                                                 Thermocouple_1_xScaleVT[Thermocouple_1_RANGE_MAS_1]
 412:Generated_Source\PSoC4/Thermocouple_1.c ****                 voltage = -voltage;
 185              		.loc 1 412 0
 186 005a 6D42     		rsbs	r5, r5, #0
 187              	.LVL27:
 188 005c 00E0     		b	.L14
 189              	.L13:
 413:Generated_Source\PSoC4/Thermocouple_1.c ****             }
 414:Generated_Source\PSoC4/Thermocouple_1.c ****             else
 415:Generated_Source\PSoC4/Thermocouple_1.c ****             {
 416:Generated_Source\PSoC4/Thermocouple_1.c ****                 voltage = (int32)((uint64)((uint64)voltage << 
 190              		.loc 1 416 0
 191 005e 6D02     		lsls	r5, r5, #9
 192              	.LVL28:
 193              	.L14:
 417:Generated_Source\PSoC4/Thermocouple_1.c ****                                                (Thermocouple_1_IN_NORMALIZATION_VT - 
 418:Generated_Source\PSoC4/Thermocouple_1.c ****                                                 Thermocouple_1_xScaleVT[Thermocouple_1_RANGE_MAS_1]
 419:Generated_Source\PSoC4/Thermocouple_1.c ****             }              
 420:Generated_Source\PSoC4/Thermocouple_1.c ****             
 421:Generated_Source\PSoC4/Thermocouple_1.c ****             for (i=Thermocouple_1_ORDER_VT - 1u; i > 0u; i--)
 194              		.loc 1 421 0
 195 0060 0924     		movs	r4, #9
 205:Generated_Source\PSoC4/Thermocouple_1.c ****     uint8 i=0u;
 196              		.loc 1 205 0
 197 0062 0020     		movs	r0, #0
 198              		.loc 1 421 0
 199 0064 0AE0     		b	.L15
 200              	.LVL29:
 201              	.L16:
 422:Generated_Source\PSoC4/Thermocouple_1.c ****             {
ARM GAS  C:\Users\GCRIST~1\AppData\Local\Temp\cc2n5swv.s 			page 12


 423:Generated_Source\PSoC4/Thermocouple_1.c ****                 temp = Thermocouple_1_MultShift24((Thermocouple_1_coeffVT[i][Thermocouple_1_RANGE_M
 202              		.loc 1 423 0 discriminator 3
 203 0066 6200     		lsls	r2, r4, #1
 204 0068 1219     		adds	r2, r2, r4
 205 006a 9300     		lsls	r3, r2, #2
 206 006c 6B44     		add	r3, r3, sp
 207 006e 5B68     		ldr	r3, [r3, #4]
 208 0070 C018     		adds	r0, r0, r3
 209              	.LVL30:
 210 0072 2900     		movs	r1, r5
 211 0074 FFF7FEFF 		bl	Thermocouple_1_MultShift24
 212              	.LVL31:
 421:Generated_Source\PSoC4/Thermocouple_1.c ****             {
 213              		.loc 1 421 0 discriminator 3
 214 0078 013C     		subs	r4, r4, #1
 215              	.LVL32:
 216 007a E4B2     		uxtb	r4, r4
 217              	.LVL33:
 218              	.L15:
 421:Generated_Source\PSoC4/Thermocouple_1.c ****             {
 219              		.loc 1 421 0 is_stmt 0 discriminator 1
 220 007c 002C     		cmp	r4, #0
 221 007e F2D1     		bne	.L16
 424:Generated_Source\PSoC4/Thermocouple_1.c ****                        temp), voltage);
 425:Generated_Source\PSoC4/Thermocouple_1.c ****             }
 426:Generated_Source\PSoC4/Thermocouple_1.c **** 
 427:Generated_Source\PSoC4/Thermocouple_1.c ****             if(Thermocouple_1_coefScaleVT[Thermocouple_1_RANGE_MAS_1] < 0)
 428:Generated_Source\PSoC4/Thermocouple_1.c ****             {
 429:Generated_Source\PSoC4/Thermocouple_1.c ****                 temp = (int32)((uint64)((uint64)(int32)(temp + 
 430:Generated_Source\PSoC4/Thermocouple_1.c ****                         Thermocouple_1_coeffVT[Thermocouple_1_FIRST_EL_MAS][Thermocouple_1_RANGE_MA
 431:Generated_Source\PSoC4/Thermocouple_1.c ****                         Thermocouple_1_coefScaleVT[Thermocouple_1_RANGE_MAS_1]));
 432:Generated_Source\PSoC4/Thermocouple_1.c ****             }
 433:Generated_Source\PSoC4/Thermocouple_1.c **** 
 434:Generated_Source\PSoC4/Thermocouple_1.c ****             else
 435:Generated_Source\PSoC4/Thermocouple_1.c ****             {
 436:Generated_Source\PSoC4/Thermocouple_1.c ****                 temp = (int32)((uint32)((uint64)(int32)(temp + 
 222              		.loc 1 436 0 is_stmt 1
 223 0080 C217     		asrs	r2, r0, #31
 437:Generated_Source\PSoC4/Thermocouple_1.c ****                         Thermocouple_1_coeffVT[Thermocouple_1_FIRST_EL_MAS][Thermocouple_1_RANGE_MA
 224              		.loc 1 437 0
 225 0082 D207     		lsls	r2, r2, #31
 226 0084 4308     		lsrs	r3, r0, #1
 227 0086 1A43     		orrs	r2, r3
 228 0088 1000     		movs	r0, r2
 229              	.LVL34:
 230 008a 1EE0     		b	.L11
 231              	.LVL35:
 232              	.L12:
 438:Generated_Source\PSoC4/Thermocouple_1.c ****                         Thermocouple_1_coefScaleVT[Thermocouple_1_RANGE_MAS_1]));
 439:Generated_Source\PSoC4/Thermocouple_1.c ****             }
 440:Generated_Source\PSoC4/Thermocouple_1.c ****         }
 441:Generated_Source\PSoC4/Thermocouple_1.c **** 
 442:Generated_Source\PSoC4/Thermocouple_1.c ****         else
 443:Generated_Source\PSoC4/Thermocouple_1.c ****         {
 444:Generated_Source\PSoC4/Thermocouple_1.c ****             if (voltage < 0)
 233              		.loc 1 444 0
 234 008c 002D     		cmp	r5, #0
ARM GAS  C:\Users\GCRIST~1\AppData\Local\Temp\cc2n5swv.s 			page 13


 235 008e 03DA     		bge	.L17
 445:Generated_Source\PSoC4/Thermocouple_1.c ****             {
 446:Generated_Source\PSoC4/Thermocouple_1.c ****                 voltage = -voltage;
 236              		.loc 1 446 0
 237 0090 6D42     		rsbs	r5, r5, #0
 238              	.LVL36:
 447:Generated_Source\PSoC4/Thermocouple_1.c ****                 voltage = (int32)((uint64)((uint64)voltage << 
 239              		.loc 1 447 0
 240 0092 2D02     		lsls	r5, r5, #8
 241              	.LVL37:
 448:Generated_Source\PSoC4/Thermocouple_1.c ****                                                (Thermocouple_1_IN_NORMALIZATION_VT - 
 449:Generated_Source\PSoC4/Thermocouple_1.c ****                                                 Thermocouple_1_xScaleVT[Thermocouple_1_RANGE_MAS_2]
 450:Generated_Source\PSoC4/Thermocouple_1.c ****                 voltage = -voltage;
 242              		.loc 1 450 0
 243 0094 6D42     		rsbs	r5, r5, #0
 244              	.LVL38:
 245 0096 00E0     		b	.L18
 246              	.L17:
 451:Generated_Source\PSoC4/Thermocouple_1.c ****             }
 452:Generated_Source\PSoC4/Thermocouple_1.c ****             else
 453:Generated_Source\PSoC4/Thermocouple_1.c ****             {
 454:Generated_Source\PSoC4/Thermocouple_1.c ****                 voltage = (int32)((uint64)((uint64)voltage << 
 247              		.loc 1 454 0
 248 0098 2D02     		lsls	r5, r5, #8
 249              	.LVL39:
 250              	.L18:
 455:Generated_Source\PSoC4/Thermocouple_1.c ****                                                (Thermocouple_1_IN_NORMALIZATION_VT - 
 456:Generated_Source\PSoC4/Thermocouple_1.c ****                                                 Thermocouple_1_xScaleVT[Thermocouple_1_RANGE_MAS_2]
 457:Generated_Source\PSoC4/Thermocouple_1.c ****             }              
 458:Generated_Source\PSoC4/Thermocouple_1.c **** 
 459:Generated_Source\PSoC4/Thermocouple_1.c ****             for (i=Thermocouple_1_ORDER_VT - 1u; i > 0u; i--)
 251              		.loc 1 459 0
 252 009a 0924     		movs	r4, #9
 205:Generated_Source\PSoC4/Thermocouple_1.c ****     uint8 i=0u;
 253              		.loc 1 205 0
 254 009c 0020     		movs	r0, #0
 255              		.loc 1 459 0
 256 009e 0AE0     		b	.L19
 257              	.LVL40:
 258              	.L20:
 460:Generated_Source\PSoC4/Thermocouple_1.c ****             {
 461:Generated_Source\PSoC4/Thermocouple_1.c ****                 temp = Thermocouple_1_MultShift24((Thermocouple_1_coeffVT[i][Thermocouple_1_RANGE_M
 259              		.loc 1 461 0 discriminator 3
 260 00a0 6200     		lsls	r2, r4, #1
 261 00a2 1219     		adds	r2, r2, r4
 262 00a4 9300     		lsls	r3, r2, #2
 263 00a6 6B44     		add	r3, r3, sp
 264 00a8 9B68     		ldr	r3, [r3, #8]
 265 00aa C018     		adds	r0, r0, r3
 266              	.LVL41:
 267 00ac 2900     		movs	r1, r5
 268 00ae FFF7FEFF 		bl	Thermocouple_1_MultShift24
 269              	.LVL42:
 459:Generated_Source\PSoC4/Thermocouple_1.c ****             {
 270              		.loc 1 459 0 discriminator 3
 271 00b2 013C     		subs	r4, r4, #1
 272              	.LVL43:
ARM GAS  C:\Users\GCRIST~1\AppData\Local\Temp\cc2n5swv.s 			page 14


 273 00b4 E4B2     		uxtb	r4, r4
 274              	.LVL44:
 275              	.L19:
 459:Generated_Source\PSoC4/Thermocouple_1.c ****             {
 276              		.loc 1 459 0 is_stmt 0 discriminator 1
 277 00b6 002C     		cmp	r4, #0
 278 00b8 F2D1     		bne	.L20
 462:Generated_Source\PSoC4/Thermocouple_1.c ****                        temp), voltage);
 463:Generated_Source\PSoC4/Thermocouple_1.c ****             }
 464:Generated_Source\PSoC4/Thermocouple_1.c **** 
 465:Generated_Source\PSoC4/Thermocouple_1.c ****             if(Thermocouple_1_coefScaleVT[Thermocouple_1_RANGE_MAS_2] < 0)
 466:Generated_Source\PSoC4/Thermocouple_1.c ****             {
 467:Generated_Source\PSoC4/Thermocouple_1.c ****                 temp = (int32)((uint64)((uint64)(int32)(temp + 
 468:Generated_Source\PSoC4/Thermocouple_1.c ****                         Thermocouple_1_coeffVT[Thermocouple_1_FIRST_EL_MAS][Thermocouple_1_RANGE_MA
 469:Generated_Source\PSoC4/Thermocouple_1.c ****                         Thermocouple_1_coefScaleVT[Thermocouple_1_RANGE_MAS_2]));
 470:Generated_Source\PSoC4/Thermocouple_1.c ****             }
 471:Generated_Source\PSoC4/Thermocouple_1.c **** 
 472:Generated_Source\PSoC4/Thermocouple_1.c ****             else
 473:Generated_Source\PSoC4/Thermocouple_1.c ****             {
 474:Generated_Source\PSoC4/Thermocouple_1.c ****                 temp = (int32)((uint32)((uint64)(int32)(temp + 
 279              		.loc 1 474 0 is_stmt 1
 280 00ba 074B     		ldr	r3, .L21+8
 281 00bc 9C46     		mov	ip, r3
 282 00be 6044     		add	r0, r0, ip
 283              	.LVL45:
 284 00c0 C217     		asrs	r2, r0, #31
 475:Generated_Source\PSoC4/Thermocouple_1.c ****                         Thermocouple_1_coeffVT[Thermocouple_1_FIRST_EL_MAS][Thermocouple_1_RANGE_MA
 285              		.loc 1 475 0
 286 00c2 5206     		lsls	r2, r2, #25
 287 00c4 C309     		lsrs	r3, r0, #7
 288 00c6 1A43     		orrs	r2, r3
 289 00c8 1000     		movs	r0, r2
 290              	.LVL46:
 291              	.L11:
 476:Generated_Source\PSoC4/Thermocouple_1.c ****                         Thermocouple_1_coefScaleVT[Thermocouple_1_RANGE_MAS_2]));
 477:Generated_Source\PSoC4/Thermocouple_1.c ****             }
 478:Generated_Source\PSoC4/Thermocouple_1.c ****         }
 479:Generated_Source\PSoC4/Thermocouple_1.c ****     }
 480:Generated_Source\PSoC4/Thermocouple_1.c **** 
 481:Generated_Source\PSoC4/Thermocouple_1.c ****     #endif /* End Thermocouple_1_VT_RANGE_LEN == Thermocouple_1_THREE */
 482:Generated_Source\PSoC4/Thermocouple_1.c **** 
 483:Generated_Source\PSoC4/Thermocouple_1.c ****     return (temp);
 484:Generated_Source\PSoC4/Thermocouple_1.c **** }
 292              		.loc 1 484 0
 293 00ca 1FB0     		add	sp, sp, #124
 294              		@ sp needed
 295              	.LVL47:
 296              	.LVL48:
 297 00cc 30BD     		pop	{r4, r5, pc}
 298              	.L22:
 299 00ce C046     		.align	2
 300              	.L21:
 301 00d0 00000000 		.word	.LANCHOR0
 302 00d4 A4500000 		.word	20644
 303 00d8 B641E6FF 		.word	-1687114
 304              		.cfi_endproc
 305              	.LFE2:
ARM GAS  C:\Users\GCRIST~1\AppData\Local\Temp\cc2n5swv.s 			page 15


 306              		.size	Thermocouple_1_GetTemperature, .-Thermocouple_1_GetTemperature
 307              		.section	.text.Thermocouple_1_GetVoltage,"ax",%progbits
 308              		.align	2
 309              		.global	Thermocouple_1_GetVoltage
 310              		.code	16
 311              		.thumb_func
 312              		.type	Thermocouple_1_GetVoltage, %function
 313              	Thermocouple_1_GetVoltage:
 314              	.LFB3:
 485:Generated_Source\PSoC4/Thermocouple_1.c **** #endif /* End CY_PSOC3 */
 486:Generated_Source\PSoC4/Thermocouple_1.c **** 
 487:Generated_Source\PSoC4/Thermocouple_1.c **** 
 488:Generated_Source\PSoC4/Thermocouple_1.c **** /*******************************************************************************
 489:Generated_Source\PSoC4/Thermocouple_1.c **** * Function Name: Thermocouple_1_GetVoltage
 490:Generated_Source\PSoC4/Thermocouple_1.c **** ********************************************************************************
 491:Generated_Source\PSoC4/Thermocouple_1.c **** *
 492:Generated_Source\PSoC4/Thermocouple_1.c **** * Summary:
 493:Generated_Source\PSoC4/Thermocouple_1.c **** *  This function takes the temperature as input and provides the expected
 494:Generated_Source\PSoC4/Thermocouple_1.c **** *  voltage for that temperature.
 495:Generated_Source\PSoC4/Thermocouple_1.c **** *
 496:Generated_Source\PSoC4/Thermocouple_1.c **** * Parameters:
 497:Generated_Source\PSoC4/Thermocouple_1.c **** *  int32 temperature : Temperature of the cold junction in 1/100 degree C
 498:Generated_Source\PSoC4/Thermocouple_1.c **** *
 499:Generated_Source\PSoC4/Thermocouple_1.c **** * Return:
 500:Generated_Source\PSoC4/Thermocouple_1.c **** *  int32 : Expected voltage output of the thermocouple in microvolts
 501:Generated_Source\PSoC4/Thermocouple_1.c **** *
 502:Generated_Source\PSoC4/Thermocouple_1.c **** *******************************************************************************/
 503:Generated_Source\PSoC4/Thermocouple_1.c **** int32 Thermocouple_1_GetVoltage(int32 temperature) 
 504:Generated_Source\PSoC4/Thermocouple_1.c **** 
 505:Generated_Source\PSoC4/Thermocouple_1.c **** #if (CY_PSOC3)
 506:Generated_Source\PSoC4/Thermocouple_1.c **** {
 507:Generated_Source\PSoC4/Thermocouple_1.c **** 
 508:Generated_Source\PSoC4/Thermocouple_1.c ****     /***************************************
 509:Generated_Source\PSoC4/Thermocouple_1.c ****     *  Customizer Generated Coefficients
 510:Generated_Source\PSoC4/Thermocouple_1.c ****     ***************************************/
 511:Generated_Source\PSoC4/Thermocouple_1.c ****     const int32 CYCODE Thermocouple_1_coeffTV[9] = {0, 
 512:Generated_Source\PSoC4/Thermocouple_1.c ****                                                 413735, 
 513:Generated_Source\PSoC4/Thermocouple_1.c ****                                                 83372, 
 514:Generated_Source\PSoC4/Thermocouple_1.c ****                                                 -137607, 
 515:Generated_Source\PSoC4/Thermocouple_1.c ****                                                 1089544, 
 516:Generated_Source\PSoC4/Thermocouple_1.c ****                                                 -9978037, 
 517:Generated_Source\PSoC4/Thermocouple_1.c ****                                                 43567176, 
 518:Generated_Source\PSoC4/Thermocouple_1.c ****                                                 -95708775, 
 519:Generated_Source\PSoC4/Thermocouple_1.c ****                                                 84037362};
 520:Generated_Source\PSoC4/Thermocouple_1.c **** 
 521:Generated_Source\PSoC4/Thermocouple_1.c ****     /* Variable to store calculated voltage */
 522:Generated_Source\PSoC4/Thermocouple_1.c ****     uint8 i=0u;
 523:Generated_Source\PSoC4/Thermocouple_1.c ****     float32 voltage=0.0f;
 524:Generated_Source\PSoC4/Thermocouple_1.c ****     float32 temperatureNorm=0.0f;
 525:Generated_Source\PSoC4/Thermocouple_1.c **** 
 526:Generated_Source\PSoC4/Thermocouple_1.c ****     temperatureNorm  = (float32)temperature;
 527:Generated_Source\PSoC4/Thermocouple_1.c **** 
 528:Generated_Source\PSoC4/Thermocouple_1.c ****     for (i = Thermocouple_1_ORDER_TV - 1u; i > 0u; i--)
 529:Generated_Source\PSoC4/Thermocouple_1.c ****     {
 530:Generated_Source\PSoC4/Thermocouple_1.c ****         voltage = (Thermocouple_1_coeffTV[i] + voltage) * temperatureNorm;
 531:Generated_Source\PSoC4/Thermocouple_1.c ****     }
 532:Generated_Source\PSoC4/Thermocouple_1.c ****     voltage = (voltage + Thermocouple_1_coeffTV[Thermocouple_1_FIRST_EL_MAS]);
ARM GAS  C:\Users\GCRIST~1\AppData\Local\Temp\cc2n5swv.s 			page 16


 533:Generated_Source\PSoC4/Thermocouple_1.c **** 
 534:Generated_Source\PSoC4/Thermocouple_1.c ****     return ((int32) (voltage));
 535:Generated_Source\PSoC4/Thermocouple_1.c **** }
 536:Generated_Source\PSoC4/Thermocouple_1.c **** #else
 537:Generated_Source\PSoC4/Thermocouple_1.c **** {
 315              		.loc 1 537 0
 316              		.cfi_startproc
 317              		@ args = 0, pretend = 0, frame = 40
 318              		@ frame_needed = 0, uses_anonymous_args = 0
 319              	.LVL49:
 320 0000 30B5     		push	{r4, r5, lr}
 321              		.cfi_def_cfa_offset 12
 322              		.cfi_offset 4, -12
 323              		.cfi_offset 5, -8
 324              		.cfi_offset 14, -4
 325 0002 8BB0     		sub	sp, sp, #44
 326              		.cfi_def_cfa_offset 56
 538:Generated_Source\PSoC4/Thermocouple_1.c **** 
 539:Generated_Source\PSoC4/Thermocouple_1.c ****     /***************************************
 540:Generated_Source\PSoC4/Thermocouple_1.c ****     *  Customizer Generated Coefficients
 541:Generated_Source\PSoC4/Thermocouple_1.c ****     ***************************************/
 542:Generated_Source\PSoC4/Thermocouple_1.c ****     const int32 CYCODE Thermocouple_1_coeffTV[9] = {0, 
 327              		.loc 1 542 0
 328 0004 01A9     		add	r1, sp, #4
 329 0006 0A00     		movs	r2, r1
 330 0008 114B     		ldr	r3, .L28
 331 000a 7833     		adds	r3, r3, #120
 332 000c 32CB     		ldmia	r3!, {r1, r4, r5}
 333 000e 32C2     		stmia	r2!, {r1, r4, r5}
 334 0010 32CB     		ldmia	r3!, {r1, r4, r5}
 335 0012 32C2     		stmia	r2!, {r1, r4, r5}
 336 0014 32CB     		ldmia	r3!, {r1, r4, r5}
 337 0016 32C2     		stmia	r2!, {r1, r4, r5}
 338              	.LVL50:
 543:Generated_Source\PSoC4/Thermocouple_1.c ****                                                 413735, 
 544:Generated_Source\PSoC4/Thermocouple_1.c ****                                                 83372, 
 545:Generated_Source\PSoC4/Thermocouple_1.c ****                                                 -137607, 
 546:Generated_Source\PSoC4/Thermocouple_1.c ****                                                 1089544, 
 547:Generated_Source\PSoC4/Thermocouple_1.c ****                                                 -9978037, 
 548:Generated_Source\PSoC4/Thermocouple_1.c ****                                                 43567176, 
 549:Generated_Source\PSoC4/Thermocouple_1.c ****                                                 -95708775, 
 550:Generated_Source\PSoC4/Thermocouple_1.c ****                                                 84037362};
 551:Generated_Source\PSoC4/Thermocouple_1.c **** 
 552:Generated_Source\PSoC4/Thermocouple_1.c ****     /* Variable to store calculated voltage */
 553:Generated_Source\PSoC4/Thermocouple_1.c ****     uint8 i=0u;
 554:Generated_Source\PSoC4/Thermocouple_1.c ****     int32 voltage=0;
 555:Generated_Source\PSoC4/Thermocouple_1.c **** 
 556:Generated_Source\PSoC4/Thermocouple_1.c ****     if (temperature < 0)
 339              		.loc 1 556 0
 340 0018 0028     		cmp	r0, #0
 341 001a 03DA     		bge	.L24
 557:Generated_Source\PSoC4/Thermocouple_1.c ****     {
 558:Generated_Source\PSoC4/Thermocouple_1.c ****         temperature = -temperature;
 342              		.loc 1 558 0
 343 001c 4542     		rsbs	r5, r0, #0
 344              	.LVL51:
 559:Generated_Source\PSoC4/Thermocouple_1.c ****         temperature = (int32)((uint64)((uint64)temperature << 
ARM GAS  C:\Users\GCRIST~1\AppData\Local\Temp\cc2n5swv.s 			page 17


 345              		.loc 1 559 0
 346 001e 6D02     		lsls	r5, r5, #9
 347              	.LVL52:
 560:Generated_Source\PSoC4/Thermocouple_1.c ****                                        (Thermocouple_1_IN_NORMALIZATION_TV - Thermocouple_1_X_SCALE
 561:Generated_Source\PSoC4/Thermocouple_1.c ****         temperature = -temperature;
 348              		.loc 1 561 0
 349 0020 6D42     		rsbs	r5, r5, #0
 350              	.LVL53:
 351 0022 00E0     		b	.L25
 352              	.LVL54:
 353              	.L24:
 562:Generated_Source\PSoC4/Thermocouple_1.c ****     }
 563:Generated_Source\PSoC4/Thermocouple_1.c ****     else
 564:Generated_Source\PSoC4/Thermocouple_1.c ****     {
 565:Generated_Source\PSoC4/Thermocouple_1.c ****         temperature = (int32)((uint64)((uint64)temperature << 
 354              		.loc 1 565 0
 355 0024 4502     		lsls	r5, r0, #9
 356              	.LVL55:
 357              	.L25:
 554:Generated_Source\PSoC4/Thermocouple_1.c **** 
 358              		.loc 1 554 0
 359 0026 0020     		movs	r0, #0
 566:Generated_Source\PSoC4/Thermocouple_1.c ****                                        (Thermocouple_1_IN_NORMALIZATION_TV - Thermocouple_1_X_SCALE
 567:Generated_Source\PSoC4/Thermocouple_1.c ****     }
 568:Generated_Source\PSoC4/Thermocouple_1.c ****     
 569:Generated_Source\PSoC4/Thermocouple_1.c ****     for (i = Thermocouple_1_ORDER_TV - 1u; i > 0u; i--)
 360              		.loc 1 569 0
 361 0028 0824     		movs	r4, #8
 362 002a 08E0     		b	.L26
 363              	.LVL56:
 364              	.L27:
 570:Generated_Source\PSoC4/Thermocouple_1.c ****     {
 571:Generated_Source\PSoC4/Thermocouple_1.c ****         voltage = Thermocouple_1_MultShift24((Thermocouple_1_coeffTV[i] + voltage), temperature);
 365              		.loc 1 571 0 discriminator 3
 366 002c A200     		lsls	r2, r4, #2
 367 002e 01AB     		add	r3, sp, #4
 368 0030 D358     		ldr	r3, [r2, r3]
 369 0032 C018     		adds	r0, r0, r3
 370              	.LVL57:
 371 0034 2900     		movs	r1, r5
 372 0036 FFF7FEFF 		bl	Thermocouple_1_MultShift24
 373              	.LVL58:
 569:Generated_Source\PSoC4/Thermocouple_1.c ****     {
 374              		.loc 1 569 0 discriminator 3
 375 003a 013C     		subs	r4, r4, #1
 376              	.LVL59:
 377 003c E4B2     		uxtb	r4, r4
 378              	.LVL60:
 379              	.L26:
 569:Generated_Source\PSoC4/Thermocouple_1.c ****     {
 380              		.loc 1 569 0 is_stmt 0 discriminator 1
 381 003e 002C     		cmp	r4, #0
 382 0040 F4D1     		bne	.L27
 572:Generated_Source\PSoC4/Thermocouple_1.c ****     }
 573:Generated_Source\PSoC4/Thermocouple_1.c **** 
 574:Generated_Source\PSoC4/Thermocouple_1.c ****     voltage = (int32)((uint32)((uint64)(int32)(voltage + Thermocouple_1_coeffTV[Thermocouple_1_FIRS
 383              		.loc 1 574 0 is_stmt 1
ARM GAS  C:\Users\GCRIST~1\AppData\Local\Temp\cc2n5swv.s 			page 18


 384 0042 C317     		asrs	r3, r0, #31
 385 0044 DB06     		lsls	r3, r3, #27
 386 0046 4009     		lsrs	r0, r0, #5
 387              	.LVL61:
 388 0048 1843     		orrs	r0, r3
 389              	.LVL62:
 575:Generated_Source\PSoC4/Thermocouple_1.c ****                                         Thermocouple_1_COEF_SCALE_TV));
 576:Generated_Source\PSoC4/Thermocouple_1.c **** 
 577:Generated_Source\PSoC4/Thermocouple_1.c ****     return (voltage);
 578:Generated_Source\PSoC4/Thermocouple_1.c **** }
 390              		.loc 1 578 0
 391 004a 0BB0     		add	sp, sp, #44
 392              		@ sp needed
 393              	.LVL63:
 394              	.LVL64:
 395 004c 30BD     		pop	{r4, r5, pc}
 396              	.L29:
 397 004e C046     		.align	2
 398              	.L28:
 399 0050 00000000 		.word	.LANCHOR0
 400              		.cfi_endproc
 401              	.LFE3:
 402              		.size	Thermocouple_1_GetVoltage, .-Thermocouple_1_GetVoltage
 403              		.section	.rodata
 404              		.align	2
 405              		.set	.LANCHOR0,. + 0
 406              	.LC0:
 407 0000 00000000 		.word	0
 408 0004 00000000 		.word	0
 409 0008 B641E6FF 		.word	-1687114
 410 000c 0D472800 		.word	2639629
 411 0010 24820200 		.word	164388
 412 0014 B7446A02 		.word	40518839
 413 0018 96B6F0FF 		.word	-1001834
 414 001c EF410000 		.word	16879
 415 0020 89359BFA 		.word	-90491511
 416 0024 B9AC8BFF 		.word	-7623495
 417 0028 721FE5FF 		.word	-1761422
 418 002c 8444BC0B 		.word	196887684
 419 0030 F657EAFC 		.word	-51750922
 420 0034 4B912401 		.word	19173707
 421 0038 A7F66AF2 		.word	-227871065
 422 003c BA327DF5 		.word	-176344390
 423 0040 562C78FA 		.word	-92787626
 424 0044 EB5B1E08 		.word	136207339
 425 0048 831C06EC 		.word	-335143805
 426 004c 2EDC770E 		.word	242736174
 427 0050 1FA01EFE 		.word	-31547361
 428 0054 A16642EC 		.word	-331192671
 429 0058 F8EEA8EA 		.word	-358027528
 430 005c 00000000 		.word	0
 431 0060 CC36F7F7 		.word	-134793524
 432 0064 C9ADC210 		.word	281193929
 433 0068 00000000 		.word	0
 434 006c 00000000 		.word	0
 435 0070 09A688FA 		.word	-91707895
 436 0074 00000000 		.word	0
ARM GAS  C:\Users\GCRIST~1\AppData\Local\Temp\cc2n5swv.s 			page 19


 437              	.LC1:
 438 0078 00000000 		.word	0
 439 007c 27500600 		.word	413735
 440 0080 AC450100 		.word	83372
 441 0084 79E6FDFF 		.word	-137607
 442 0088 08A01000 		.word	1089544
 443 008c 4BBF67FF 		.word	-9978037
 444 0090 48C89802 		.word	43567176
 445 0094 99994BFA 		.word	-95708775
 446 0098 F24E0205 		.word	84037362
 447              		.text
 448              	.Letext0:
 449              		.file 2 "Generated_Source\\PSoC4\\cytypes.h"