ARM GAS  C:\Users\GCRIST~1\AppData\Local\Temp\cc4spGaH.s 			page 1


   1              		.syntax unified
   2              		.cpu cortex-m0plus
   3              		.fpu softvfp
   4              		.eabi_attribute 20, 1
   5              		.eabi_attribute 21, 1
   6              		.eabi_attribute 23, 3
   7              		.eabi_attribute 24, 1
   8              		.eabi_attribute 25, 1
   9              		.eabi_attribute 26, 1
  10              		.eabi_attribute 30, 1
  11              		.eabi_attribute 34, 0
  12              		.eabi_attribute 18, 4
  13              		.thumb
  14              		.syntax unified
  15              		.file	"UART_PC_UART.c"
  16              		.text
  17              	.Ltext0:
  18              		.cfi_sections	.debug_frame
  19              		.section	.text.UART_PC_UartInit,"ax",%progbits
  20              		.align	2
  21              		.global	UART_PC_UartInit
  22              		.code	16
  23              		.thumb_func
  24              		.type	UART_PC_UartInit, %function
  25              	UART_PC_UartInit:
  26              	.LFB1:
  27              		.file 1 "Generated_Source\\PSoC4\\UART_PC_UART.c"
   1:Generated_Source\PSoC4/UART_PC_UART.c **** /***************************************************************************//**
   2:Generated_Source\PSoC4/UART_PC_UART.c **** * \file UART_PC_UART.c
   3:Generated_Source\PSoC4/UART_PC_UART.c **** * \version 4.0
   4:Generated_Source\PSoC4/UART_PC_UART.c **** *
   5:Generated_Source\PSoC4/UART_PC_UART.c **** * \brief
   6:Generated_Source\PSoC4/UART_PC_UART.c **** *  This file provides the source code to the API for the SCB Component in
   7:Generated_Source\PSoC4/UART_PC_UART.c **** *  UART mode.
   8:Generated_Source\PSoC4/UART_PC_UART.c **** *
   9:Generated_Source\PSoC4/UART_PC_UART.c **** * Note:
  10:Generated_Source\PSoC4/UART_PC_UART.c **** *
  11:Generated_Source\PSoC4/UART_PC_UART.c **** *******************************************************************************
  12:Generated_Source\PSoC4/UART_PC_UART.c **** * \copyright
  13:Generated_Source\PSoC4/UART_PC_UART.c **** * Copyright 2013-2017, Cypress Semiconductor Corporation.  All rights reserved.
  14:Generated_Source\PSoC4/UART_PC_UART.c **** * You may use this file only in accordance with the license, terms, conditions,
  15:Generated_Source\PSoC4/UART_PC_UART.c **** * disclaimers, and limitations in the end user license agreement accompanying
  16:Generated_Source\PSoC4/UART_PC_UART.c **** * the software package with which this file was provided.
  17:Generated_Source\PSoC4/UART_PC_UART.c **** *******************************************************************************/
  18:Generated_Source\PSoC4/UART_PC_UART.c **** 
  19:Generated_Source\PSoC4/UART_PC_UART.c **** #include "UART_PC_PVT.h"
  20:Generated_Source\PSoC4/UART_PC_UART.c **** #include "UART_PC_SPI_UART_PVT.h"
  21:Generated_Source\PSoC4/UART_PC_UART.c **** #include "cyapicallbacks.h"
  22:Generated_Source\PSoC4/UART_PC_UART.c **** 
  23:Generated_Source\PSoC4/UART_PC_UART.c **** #if (UART_PC_UART_WAKE_ENABLE_CONST && UART_PC_UART_RX_WAKEUP_IRQ)
  24:Generated_Source\PSoC4/UART_PC_UART.c ****     /**
  25:Generated_Source\PSoC4/UART_PC_UART.c ****     * \addtogroup group_globals
  26:Generated_Source\PSoC4/UART_PC_UART.c ****     * \{
  27:Generated_Source\PSoC4/UART_PC_UART.c ****     */
  28:Generated_Source\PSoC4/UART_PC_UART.c ****     /** This global variable determines whether to enable Skip Start
  29:Generated_Source\PSoC4/UART_PC_UART.c ****     * functionality when UART_PC_Sleep() function is called:
  30:Generated_Source\PSoC4/UART_PC_UART.c ****     * 0 – disable, other values – enable. Default value is 1.
ARM GAS  C:\Users\GCRIST~1\AppData\Local\Temp\cc4spGaH.s 			page 2


  31:Generated_Source\PSoC4/UART_PC_UART.c ****     * It is only available when Enable wakeup from Deep Sleep Mode is enabled.
  32:Generated_Source\PSoC4/UART_PC_UART.c ****     */
  33:Generated_Source\PSoC4/UART_PC_UART.c ****     uint8 UART_PC_skipStart = 1u;
  34:Generated_Source\PSoC4/UART_PC_UART.c ****     /** \} globals */
  35:Generated_Source\PSoC4/UART_PC_UART.c **** #endif /* (UART_PC_UART_WAKE_ENABLE_CONST && UART_PC_UART_RX_WAKEUP_IRQ) */
  36:Generated_Source\PSoC4/UART_PC_UART.c **** 
  37:Generated_Source\PSoC4/UART_PC_UART.c **** #if(UART_PC_SCB_MODE_UNCONFIG_CONST_CFG)
  38:Generated_Source\PSoC4/UART_PC_UART.c **** 
  39:Generated_Source\PSoC4/UART_PC_UART.c ****     /***************************************
  40:Generated_Source\PSoC4/UART_PC_UART.c ****     *  Configuration Structure Initialization
  41:Generated_Source\PSoC4/UART_PC_UART.c ****     ***************************************/
  42:Generated_Source\PSoC4/UART_PC_UART.c **** 
  43:Generated_Source\PSoC4/UART_PC_UART.c ****     const UART_PC_UART_INIT_STRUCT UART_PC_configUart =
  44:Generated_Source\PSoC4/UART_PC_UART.c ****     {
  45:Generated_Source\PSoC4/UART_PC_UART.c ****         UART_PC_UART_SUB_MODE,
  46:Generated_Source\PSoC4/UART_PC_UART.c ****         UART_PC_UART_DIRECTION,
  47:Generated_Source\PSoC4/UART_PC_UART.c ****         UART_PC_UART_DATA_BITS_NUM,
  48:Generated_Source\PSoC4/UART_PC_UART.c ****         UART_PC_UART_PARITY_TYPE,
  49:Generated_Source\PSoC4/UART_PC_UART.c ****         UART_PC_UART_STOP_BITS_NUM,
  50:Generated_Source\PSoC4/UART_PC_UART.c ****         UART_PC_UART_OVS_FACTOR,
  51:Generated_Source\PSoC4/UART_PC_UART.c ****         UART_PC_UART_IRDA_LOW_POWER,
  52:Generated_Source\PSoC4/UART_PC_UART.c ****         UART_PC_UART_MEDIAN_FILTER_ENABLE,
  53:Generated_Source\PSoC4/UART_PC_UART.c ****         UART_PC_UART_RETRY_ON_NACK,
  54:Generated_Source\PSoC4/UART_PC_UART.c ****         UART_PC_UART_IRDA_POLARITY,
  55:Generated_Source\PSoC4/UART_PC_UART.c ****         UART_PC_UART_DROP_ON_PARITY_ERR,
  56:Generated_Source\PSoC4/UART_PC_UART.c ****         UART_PC_UART_DROP_ON_FRAME_ERR,
  57:Generated_Source\PSoC4/UART_PC_UART.c ****         UART_PC_UART_WAKE_ENABLE,
  58:Generated_Source\PSoC4/UART_PC_UART.c ****         0u,
  59:Generated_Source\PSoC4/UART_PC_UART.c ****         NULL,
  60:Generated_Source\PSoC4/UART_PC_UART.c ****         0u,
  61:Generated_Source\PSoC4/UART_PC_UART.c ****         NULL,
  62:Generated_Source\PSoC4/UART_PC_UART.c ****         UART_PC_UART_MP_MODE_ENABLE,
  63:Generated_Source\PSoC4/UART_PC_UART.c ****         UART_PC_UART_MP_ACCEPT_ADDRESS,
  64:Generated_Source\PSoC4/UART_PC_UART.c ****         UART_PC_UART_MP_RX_ADDRESS,
  65:Generated_Source\PSoC4/UART_PC_UART.c ****         UART_PC_UART_MP_RX_ADDRESS_MASK,
  66:Generated_Source\PSoC4/UART_PC_UART.c ****         (uint32) UART_PC_SCB_IRQ_INTERNAL,
  67:Generated_Source\PSoC4/UART_PC_UART.c ****         UART_PC_UART_INTR_RX_MASK,
  68:Generated_Source\PSoC4/UART_PC_UART.c ****         UART_PC_UART_RX_TRIGGER_LEVEL,
  69:Generated_Source\PSoC4/UART_PC_UART.c ****         UART_PC_UART_INTR_TX_MASK,
  70:Generated_Source\PSoC4/UART_PC_UART.c ****         UART_PC_UART_TX_TRIGGER_LEVEL,
  71:Generated_Source\PSoC4/UART_PC_UART.c ****         (uint8) UART_PC_UART_BYTE_MODE_ENABLE,
  72:Generated_Source\PSoC4/UART_PC_UART.c ****         (uint8) UART_PC_UART_CTS_ENABLE,
  73:Generated_Source\PSoC4/UART_PC_UART.c ****         (uint8) UART_PC_UART_CTS_POLARITY,
  74:Generated_Source\PSoC4/UART_PC_UART.c ****         (uint8) UART_PC_UART_RTS_POLARITY,
  75:Generated_Source\PSoC4/UART_PC_UART.c ****         (uint8) UART_PC_UART_RTS_FIFO_LEVEL,
  76:Generated_Source\PSoC4/UART_PC_UART.c ****         (uint8) UART_PC_UART_RX_BREAK_WIDTH
  77:Generated_Source\PSoC4/UART_PC_UART.c ****     };
  78:Generated_Source\PSoC4/UART_PC_UART.c **** 
  79:Generated_Source\PSoC4/UART_PC_UART.c **** 
  80:Generated_Source\PSoC4/UART_PC_UART.c ****     /*******************************************************************************
  81:Generated_Source\PSoC4/UART_PC_UART.c ****     * Function Name: UART_PC_UartInit
  82:Generated_Source\PSoC4/UART_PC_UART.c ****     ****************************************************************************//**
  83:Generated_Source\PSoC4/UART_PC_UART.c ****     *
  84:Generated_Source\PSoC4/UART_PC_UART.c ****     *  Configures the UART_PC for UART operation.
  85:Generated_Source\PSoC4/UART_PC_UART.c ****     *
  86:Generated_Source\PSoC4/UART_PC_UART.c ****     *  This function is intended specifically to be used when the UART_PC
  87:Generated_Source\PSoC4/UART_PC_UART.c ****     *  configuration is set to “Unconfigured UART_PC” in the customizer.
ARM GAS  C:\Users\GCRIST~1\AppData\Local\Temp\cc4spGaH.s 			page 3


  88:Generated_Source\PSoC4/UART_PC_UART.c ****     *  After initializing the UART_PC in UART mode using this function,
  89:Generated_Source\PSoC4/UART_PC_UART.c ****     *  the component can be enabled using the UART_PC_Start() or
  90:Generated_Source\PSoC4/UART_PC_UART.c ****     * UART_PC_Enable() function.
  91:Generated_Source\PSoC4/UART_PC_UART.c ****     *  This function uses a pointer to a structure that provides the configuration
  92:Generated_Source\PSoC4/UART_PC_UART.c ****     *  settings. This structure contains the same information that would otherwise
  93:Generated_Source\PSoC4/UART_PC_UART.c ****     *  be provided by the customizer settings.
  94:Generated_Source\PSoC4/UART_PC_UART.c ****     *
  95:Generated_Source\PSoC4/UART_PC_UART.c ****     *  \param config: pointer to a structure that contains the following list of
  96:Generated_Source\PSoC4/UART_PC_UART.c ****     *   fields. These fields match the selections available in the customizer.
  97:Generated_Source\PSoC4/UART_PC_UART.c ****     *   Refer to the customizer for further description of the settings.
  98:Generated_Source\PSoC4/UART_PC_UART.c ****     *
  99:Generated_Source\PSoC4/UART_PC_UART.c ****     *******************************************************************************/
 100:Generated_Source\PSoC4/UART_PC_UART.c ****     void UART_PC_UartInit(const UART_PC_UART_INIT_STRUCT *config)
 101:Generated_Source\PSoC4/UART_PC_UART.c ****     {
 102:Generated_Source\PSoC4/UART_PC_UART.c ****         uint32 pinsConfig;
 103:Generated_Source\PSoC4/UART_PC_UART.c **** 
 104:Generated_Source\PSoC4/UART_PC_UART.c ****         if (NULL == config)
 105:Generated_Source\PSoC4/UART_PC_UART.c ****         {
 106:Generated_Source\PSoC4/UART_PC_UART.c ****             CYASSERT(0u != 0u); /* Halt execution due to bad function parameter */
 107:Generated_Source\PSoC4/UART_PC_UART.c ****         }
 108:Generated_Source\PSoC4/UART_PC_UART.c ****         else
 109:Generated_Source\PSoC4/UART_PC_UART.c ****         {
 110:Generated_Source\PSoC4/UART_PC_UART.c ****             /* Get direction to configure UART pins: TX, RX or TX+RX */
 111:Generated_Source\PSoC4/UART_PC_UART.c ****             pinsConfig  = config->direction;
 112:Generated_Source\PSoC4/UART_PC_UART.c **** 
 113:Generated_Source\PSoC4/UART_PC_UART.c ****         #if !(UART_PC_CY_SCBIP_V0 || UART_PC_CY_SCBIP_V1)
 114:Generated_Source\PSoC4/UART_PC_UART.c ****             /* Add RTS and CTS pins to configure */
 115:Generated_Source\PSoC4/UART_PC_UART.c ****             pinsConfig |= (0u != config->rtsRxFifoLevel) ? (UART_PC_UART_RTS_PIN_ENABLE) : (0u);
 116:Generated_Source\PSoC4/UART_PC_UART.c ****             pinsConfig |= (0u != config->enableCts)      ? (UART_PC_UART_CTS_PIN_ENABLE) : (0u);
 117:Generated_Source\PSoC4/UART_PC_UART.c ****         #endif /* !(UART_PC_CY_SCBIP_V0 || UART_PC_CY_SCBIP_V1) */
 118:Generated_Source\PSoC4/UART_PC_UART.c **** 
 119:Generated_Source\PSoC4/UART_PC_UART.c ****             /* Configure pins */
 120:Generated_Source\PSoC4/UART_PC_UART.c ****             UART_PC_SetPins(UART_PC_SCB_MODE_UART, config->mode, pinsConfig);
 121:Generated_Source\PSoC4/UART_PC_UART.c **** 
 122:Generated_Source\PSoC4/UART_PC_UART.c ****             /* Store internal configuration */
 123:Generated_Source\PSoC4/UART_PC_UART.c ****             UART_PC_scbMode       = (uint8) UART_PC_SCB_MODE_UART;
 124:Generated_Source\PSoC4/UART_PC_UART.c ****             UART_PC_scbEnableWake = (uint8) config->enableWake;
 125:Generated_Source\PSoC4/UART_PC_UART.c ****             UART_PC_scbEnableIntr = (uint8) config->enableInterrupt;
 126:Generated_Source\PSoC4/UART_PC_UART.c **** 
 127:Generated_Source\PSoC4/UART_PC_UART.c ****             /* Set RX direction internal variables */
 128:Generated_Source\PSoC4/UART_PC_UART.c ****             UART_PC_rxBuffer      =         config->rxBuffer;
 129:Generated_Source\PSoC4/UART_PC_UART.c ****             UART_PC_rxDataBits    = (uint8) config->dataBits;
 130:Generated_Source\PSoC4/UART_PC_UART.c ****             UART_PC_rxBufferSize  =         config->rxBufferSize;
 131:Generated_Source\PSoC4/UART_PC_UART.c **** 
 132:Generated_Source\PSoC4/UART_PC_UART.c ****             /* Set TX direction internal variables */
 133:Generated_Source\PSoC4/UART_PC_UART.c ****             UART_PC_txBuffer      =         config->txBuffer;
 134:Generated_Source\PSoC4/UART_PC_UART.c ****             UART_PC_txDataBits    = (uint8) config->dataBits;
 135:Generated_Source\PSoC4/UART_PC_UART.c ****             UART_PC_txBufferSize  =         config->txBufferSize;
 136:Generated_Source\PSoC4/UART_PC_UART.c **** 
 137:Generated_Source\PSoC4/UART_PC_UART.c ****             /* Configure UART interface */
 138:Generated_Source\PSoC4/UART_PC_UART.c ****             if(UART_PC_UART_MODE_IRDA == config->mode)
 139:Generated_Source\PSoC4/UART_PC_UART.c ****             {
 140:Generated_Source\PSoC4/UART_PC_UART.c ****                 /* OVS settings: IrDA */
 141:Generated_Source\PSoC4/UART_PC_UART.c ****                 UART_PC_CTRL_REG  = ((0u != config->enableIrdaLowPower) ?
 142:Generated_Source\PSoC4/UART_PC_UART.c ****                                                 (UART_PC_UART_GET_CTRL_OVS_IRDA_LP(config->oversamp
 143:Generated_Source\PSoC4/UART_PC_UART.c ****                                                 (UART_PC_CTRL_OVS_IRDA_OVS16));
 144:Generated_Source\PSoC4/UART_PC_UART.c ****             }
ARM GAS  C:\Users\GCRIST~1\AppData\Local\Temp\cc4spGaH.s 			page 4


 145:Generated_Source\PSoC4/UART_PC_UART.c ****             else
 146:Generated_Source\PSoC4/UART_PC_UART.c ****             {
 147:Generated_Source\PSoC4/UART_PC_UART.c ****                 /* OVS settings: UART and SmartCard */
 148:Generated_Source\PSoC4/UART_PC_UART.c ****                 UART_PC_CTRL_REG  = UART_PC_GET_CTRL_OVS(config->oversample);
 149:Generated_Source\PSoC4/UART_PC_UART.c ****             }
 150:Generated_Source\PSoC4/UART_PC_UART.c **** 
 151:Generated_Source\PSoC4/UART_PC_UART.c ****             UART_PC_CTRL_REG     |= UART_PC_GET_CTRL_BYTE_MODE  (config->enableByteMode)      |
 152:Generated_Source\PSoC4/UART_PC_UART.c ****                                              UART_PC_GET_CTRL_ADDR_ACCEPT(config->multiprocAcceptAd
 153:Generated_Source\PSoC4/UART_PC_UART.c ****                                              UART_PC_CTRL_UART;
 154:Generated_Source\PSoC4/UART_PC_UART.c **** 
 155:Generated_Source\PSoC4/UART_PC_UART.c ****             /* Configure sub-mode: UART, SmartCard or IrDA */
 156:Generated_Source\PSoC4/UART_PC_UART.c ****             UART_PC_UART_CTRL_REG = UART_PC_GET_UART_CTRL_MODE(config->mode);
 157:Generated_Source\PSoC4/UART_PC_UART.c **** 
 158:Generated_Source\PSoC4/UART_PC_UART.c ****             /* Configure RX direction */
 159:Generated_Source\PSoC4/UART_PC_UART.c ****             UART_PC_UART_RX_CTRL_REG = UART_PC_GET_UART_RX_CTRL_MODE(config->stopBits)             
 160:Generated_Source\PSoC4/UART_PC_UART.c ****                                         UART_PC_GET_UART_RX_CTRL_POLARITY(config->enableInvertedRx)
 161:Generated_Source\PSoC4/UART_PC_UART.c ****                                         UART_PC_GET_UART_RX_CTRL_MP_MODE(config->enableMultiproc)  
 162:Generated_Source\PSoC4/UART_PC_UART.c ****                                         UART_PC_GET_UART_RX_CTRL_DROP_ON_PARITY_ERR(config->dropOnP
 163:Generated_Source\PSoC4/UART_PC_UART.c ****                                         UART_PC_GET_UART_RX_CTRL_DROP_ON_FRAME_ERR(config->dropOnFr
 164:Generated_Source\PSoC4/UART_PC_UART.c ****                                         UART_PC_GET_UART_RX_CTRL_BREAK_WIDTH(config->breakWidth);
 165:Generated_Source\PSoC4/UART_PC_UART.c **** 
 166:Generated_Source\PSoC4/UART_PC_UART.c ****             if(UART_PC_UART_PARITY_NONE != config->parity)
 167:Generated_Source\PSoC4/UART_PC_UART.c ****             {
 168:Generated_Source\PSoC4/UART_PC_UART.c ****                UART_PC_UART_RX_CTRL_REG |= UART_PC_GET_UART_RX_CTRL_PARITY(config->parity) |
 169:Generated_Source\PSoC4/UART_PC_UART.c ****                                                     UART_PC_UART_RX_CTRL_PARITY_ENABLED;
 170:Generated_Source\PSoC4/UART_PC_UART.c ****             }
 171:Generated_Source\PSoC4/UART_PC_UART.c **** 
 172:Generated_Source\PSoC4/UART_PC_UART.c ****             UART_PC_RX_CTRL_REG      = UART_PC_GET_RX_CTRL_DATA_WIDTH(config->dataBits)       |
 173:Generated_Source\PSoC4/UART_PC_UART.c ****                                                 UART_PC_GET_RX_CTRL_MEDIAN(config->enableMedianFilt
 174:Generated_Source\PSoC4/UART_PC_UART.c ****                                                 UART_PC_GET_UART_RX_CTRL_ENABLED(config->direction)
 175:Generated_Source\PSoC4/UART_PC_UART.c **** 
 176:Generated_Source\PSoC4/UART_PC_UART.c ****             UART_PC_RX_FIFO_CTRL_REG = UART_PC_GET_RX_FIFO_CTRL_TRIGGER_LEVEL(config->rxTriggerLeve
 177:Generated_Source\PSoC4/UART_PC_UART.c **** 
 178:Generated_Source\PSoC4/UART_PC_UART.c ****             /* Configure MP address */
 179:Generated_Source\PSoC4/UART_PC_UART.c ****             UART_PC_RX_MATCH_REG     = UART_PC_GET_RX_MATCH_ADDR(config->multiprocAddr) |
 180:Generated_Source\PSoC4/UART_PC_UART.c ****                                                 UART_PC_GET_RX_MATCH_MASK(config->multiprocAddrMask
 181:Generated_Source\PSoC4/UART_PC_UART.c **** 
 182:Generated_Source\PSoC4/UART_PC_UART.c ****             /* Configure RX direction */
 183:Generated_Source\PSoC4/UART_PC_UART.c ****             UART_PC_UART_TX_CTRL_REG = UART_PC_GET_UART_TX_CTRL_MODE(config->stopBits) |
 184:Generated_Source\PSoC4/UART_PC_UART.c ****                                                 UART_PC_GET_UART_TX_CTRL_RETRY_NACK(config->enableR
 185:Generated_Source\PSoC4/UART_PC_UART.c **** 
 186:Generated_Source\PSoC4/UART_PC_UART.c ****             if(UART_PC_UART_PARITY_NONE != config->parity)
 187:Generated_Source\PSoC4/UART_PC_UART.c ****             {
 188:Generated_Source\PSoC4/UART_PC_UART.c ****                UART_PC_UART_TX_CTRL_REG |= UART_PC_GET_UART_TX_CTRL_PARITY(config->parity) |
 189:Generated_Source\PSoC4/UART_PC_UART.c ****                                                     UART_PC_UART_TX_CTRL_PARITY_ENABLED;
 190:Generated_Source\PSoC4/UART_PC_UART.c ****             }
 191:Generated_Source\PSoC4/UART_PC_UART.c **** 
 192:Generated_Source\PSoC4/UART_PC_UART.c ****             UART_PC_TX_CTRL_REG      = UART_PC_GET_TX_CTRL_DATA_WIDTH(config->dataBits)    |
 193:Generated_Source\PSoC4/UART_PC_UART.c ****                                                 UART_PC_GET_UART_TX_CTRL_ENABLED(config->direction)
 194:Generated_Source\PSoC4/UART_PC_UART.c **** 
 195:Generated_Source\PSoC4/UART_PC_UART.c ****             UART_PC_TX_FIFO_CTRL_REG = UART_PC_GET_TX_FIFO_CTRL_TRIGGER_LEVEL(config->txTriggerLeve
 196:Generated_Source\PSoC4/UART_PC_UART.c **** 
 197:Generated_Source\PSoC4/UART_PC_UART.c ****         #if !(UART_PC_CY_SCBIP_V0 || UART_PC_CY_SCBIP_V1)
 198:Generated_Source\PSoC4/UART_PC_UART.c ****             UART_PC_UART_FLOW_CTRL_REG = UART_PC_GET_UART_FLOW_CTRL_CTS_ENABLE(config->enableCts) |
 199:Generated_Source\PSoC4/UART_PC_UART.c ****                                             UART_PC_GET_UART_FLOW_CTRL_CTS_POLARITY (config->ctsPol
 200:Generated_Source\PSoC4/UART_PC_UART.c ****                                             UART_PC_GET_UART_FLOW_CTRL_RTS_POLARITY (config->rtsPol
 201:Generated_Source\PSoC4/UART_PC_UART.c ****                                             UART_PC_GET_UART_FLOW_CTRL_TRIGGER_LEVEL(config->rtsRxF
ARM GAS  C:\Users\GCRIST~1\AppData\Local\Temp\cc4spGaH.s 			page 5


 202:Generated_Source\PSoC4/UART_PC_UART.c ****         #endif /* !(UART_PC_CY_SCBIP_V0 || UART_PC_CY_SCBIP_V1) */
 203:Generated_Source\PSoC4/UART_PC_UART.c **** 
 204:Generated_Source\PSoC4/UART_PC_UART.c ****             /* Configure interrupt with UART handler but do not enable it */
 205:Generated_Source\PSoC4/UART_PC_UART.c ****             CyIntDisable    (UART_PC_ISR_NUMBER);
 206:Generated_Source\PSoC4/UART_PC_UART.c ****             CyIntSetPriority(UART_PC_ISR_NUMBER, UART_PC_ISR_PRIORITY);
 207:Generated_Source\PSoC4/UART_PC_UART.c ****             (void) CyIntSetVector(UART_PC_ISR_NUMBER, &UART_PC_SPI_UART_ISR);
 208:Generated_Source\PSoC4/UART_PC_UART.c **** 
 209:Generated_Source\PSoC4/UART_PC_UART.c ****             /* Configure WAKE interrupt */
 210:Generated_Source\PSoC4/UART_PC_UART.c ****         #if(UART_PC_UART_RX_WAKEUP_IRQ)
 211:Generated_Source\PSoC4/UART_PC_UART.c ****             CyIntDisable    (UART_PC_RX_WAKE_ISR_NUMBER);
 212:Generated_Source\PSoC4/UART_PC_UART.c ****             CyIntSetPriority(UART_PC_RX_WAKE_ISR_NUMBER, UART_PC_RX_WAKE_ISR_PRIORITY);
 213:Generated_Source\PSoC4/UART_PC_UART.c ****             (void) CyIntSetVector(UART_PC_RX_WAKE_ISR_NUMBER, &UART_PC_UART_WAKEUP_ISR);
 214:Generated_Source\PSoC4/UART_PC_UART.c ****         #endif /* (UART_PC_UART_RX_WAKEUP_IRQ) */
 215:Generated_Source\PSoC4/UART_PC_UART.c **** 
 216:Generated_Source\PSoC4/UART_PC_UART.c ****             /* Configure interrupt sources */
 217:Generated_Source\PSoC4/UART_PC_UART.c ****             UART_PC_INTR_I2C_EC_MASK_REG = UART_PC_NO_INTR_SOURCES;
 218:Generated_Source\PSoC4/UART_PC_UART.c ****             UART_PC_INTR_SPI_EC_MASK_REG = UART_PC_NO_INTR_SOURCES;
 219:Generated_Source\PSoC4/UART_PC_UART.c ****             UART_PC_INTR_SLAVE_MASK_REG  = UART_PC_NO_INTR_SOURCES;
 220:Generated_Source\PSoC4/UART_PC_UART.c ****             UART_PC_INTR_MASTER_MASK_REG = UART_PC_NO_INTR_SOURCES;
 221:Generated_Source\PSoC4/UART_PC_UART.c ****             UART_PC_INTR_RX_MASK_REG     = config->rxInterruptMask;
 222:Generated_Source\PSoC4/UART_PC_UART.c ****             UART_PC_INTR_TX_MASK_REG     = config->txInterruptMask;
 223:Generated_Source\PSoC4/UART_PC_UART.c **** 
 224:Generated_Source\PSoC4/UART_PC_UART.c ****             /* Configure TX interrupt sources to restore. */
 225:Generated_Source\PSoC4/UART_PC_UART.c ****             UART_PC_IntrTxMask = LO16(UART_PC_INTR_TX_MASK_REG);
 226:Generated_Source\PSoC4/UART_PC_UART.c **** 
 227:Generated_Source\PSoC4/UART_PC_UART.c ****             /* Clear RX buffer indexes */
 228:Generated_Source\PSoC4/UART_PC_UART.c ****             UART_PC_rxBufferHead     = 0u;
 229:Generated_Source\PSoC4/UART_PC_UART.c ****             UART_PC_rxBufferTail     = 0u;
 230:Generated_Source\PSoC4/UART_PC_UART.c ****             UART_PC_rxBufferOverflow = 0u;
 231:Generated_Source\PSoC4/UART_PC_UART.c **** 
 232:Generated_Source\PSoC4/UART_PC_UART.c ****             /* Clear TX buffer indexes */
 233:Generated_Source\PSoC4/UART_PC_UART.c ****             UART_PC_txBufferHead = 0u;
 234:Generated_Source\PSoC4/UART_PC_UART.c ****             UART_PC_txBufferTail = 0u;
 235:Generated_Source\PSoC4/UART_PC_UART.c ****         }
 236:Generated_Source\PSoC4/UART_PC_UART.c ****     }
 237:Generated_Source\PSoC4/UART_PC_UART.c **** 
 238:Generated_Source\PSoC4/UART_PC_UART.c **** #else
 239:Generated_Source\PSoC4/UART_PC_UART.c **** 
 240:Generated_Source\PSoC4/UART_PC_UART.c ****     /*******************************************************************************
 241:Generated_Source\PSoC4/UART_PC_UART.c ****     * Function Name: UART_PC_UartInit
 242:Generated_Source\PSoC4/UART_PC_UART.c ****     ****************************************************************************//**
 243:Generated_Source\PSoC4/UART_PC_UART.c ****     *
 244:Generated_Source\PSoC4/UART_PC_UART.c ****     *  Configures the SCB for the UART operation.
 245:Generated_Source\PSoC4/UART_PC_UART.c ****     *
 246:Generated_Source\PSoC4/UART_PC_UART.c ****     *******************************************************************************/
 247:Generated_Source\PSoC4/UART_PC_UART.c ****     void UART_PC_UartInit(void)
 248:Generated_Source\PSoC4/UART_PC_UART.c ****     {
  28              		.loc 1 248 0
  29              		.cfi_startproc
  30              		@ args = 0, pretend = 0, frame = 0
  31              		@ frame_needed = 0, uses_anonymous_args = 0
  32 0000 70B5     		push	{r4, r5, r6, lr}
  33              		.cfi_def_cfa_offset 16
  34              		.cfi_offset 4, -16
  35              		.cfi_offset 5, -12
  36              		.cfi_offset 6, -8
  37              		.cfi_offset 14, -4
ARM GAS  C:\Users\GCRIST~1\AppData\Local\Temp\cc4spGaH.s 			page 6


 249:Generated_Source\PSoC4/UART_PC_UART.c ****         /* Configure UART interface */
 250:Generated_Source\PSoC4/UART_PC_UART.c ****         UART_PC_CTRL_REG = UART_PC_UART_DEFAULT_CTRL;
  38              		.loc 1 250 0
  39 0002 1B4A     		ldr	r2, .L2
  40 0004 1B4B     		ldr	r3, .L2+4
  41 0006 1A60     		str	r2, [r3]
 251:Generated_Source\PSoC4/UART_PC_UART.c **** 
 252:Generated_Source\PSoC4/UART_PC_UART.c ****         /* Configure sub-mode: UART, SmartCard or IrDA */
 253:Generated_Source\PSoC4/UART_PC_UART.c ****         UART_PC_UART_CTRL_REG = UART_PC_UART_DEFAULT_UART_CTRL;
  42              		.loc 1 253 0
  43 0008 0024     		movs	r4, #0
  44 000a 1B4B     		ldr	r3, .L2+8
  45 000c 1C60     		str	r4, [r3]
 254:Generated_Source\PSoC4/UART_PC_UART.c **** 
 255:Generated_Source\PSoC4/UART_PC_UART.c ****         /* Configure RX direction */
 256:Generated_Source\PSoC4/UART_PC_UART.c ****         UART_PC_UART_RX_CTRL_REG = UART_PC_UART_DEFAULT_UART_RX_CTRL;
  46              		.loc 1 256 0
  47 000e 1B4A     		ldr	r2, .L2+12
  48 0010 1B4B     		ldr	r3, .L2+16
  49 0012 1A60     		str	r2, [r3]
 257:Generated_Source\PSoC4/UART_PC_UART.c ****         UART_PC_RX_CTRL_REG      = UART_PC_UART_DEFAULT_RX_CTRL;
  50              		.loc 1 257 0
  51 0014 1B4B     		ldr	r3, .L2+20
  52 0016 1C4A     		ldr	r2, .L2+24
  53 0018 1360     		str	r3, [r2]
 258:Generated_Source\PSoC4/UART_PC_UART.c ****         UART_PC_RX_FIFO_CTRL_REG = UART_PC_UART_DEFAULT_RX_FIFO_CTRL;
  54              		.loc 1 258 0
  55 001a 0721     		movs	r1, #7
  56 001c 1B4A     		ldr	r2, .L2+28
  57 001e 1160     		str	r1, [r2]
 259:Generated_Source\PSoC4/UART_PC_UART.c ****         UART_PC_RX_MATCH_REG     = UART_PC_UART_DEFAULT_RX_MATCH_REG;
  58              		.loc 1 259 0
  59 0020 1B4A     		ldr	r2, .L2+32
  60 0022 1460     		str	r4, [r2]
 260:Generated_Source\PSoC4/UART_PC_UART.c **** 
 261:Generated_Source\PSoC4/UART_PC_UART.c ****         /* Configure TX direction */
 262:Generated_Source\PSoC4/UART_PC_UART.c ****         UART_PC_UART_TX_CTRL_REG = UART_PC_UART_DEFAULT_UART_TX_CTRL;
  61              		.loc 1 262 0
  62 0024 0639     		subs	r1, r1, #6
  63 0026 1B4A     		ldr	r2, .L2+36
  64 0028 1160     		str	r1, [r2]
 263:Generated_Source\PSoC4/UART_PC_UART.c ****         UART_PC_TX_CTRL_REG      = UART_PC_UART_DEFAULT_TX_CTRL;
  65              		.loc 1 263 0
  66 002a 1B4A     		ldr	r2, .L2+40
  67 002c 1360     		str	r3, [r2]
 264:Generated_Source\PSoC4/UART_PC_UART.c ****         UART_PC_TX_FIFO_CTRL_REG = UART_PC_UART_DEFAULT_TX_FIFO_CTRL;
  68              		.loc 1 264 0
  69 002e 1B4B     		ldr	r3, .L2+44
  70 0030 1C60     		str	r4, [r3]
 265:Generated_Source\PSoC4/UART_PC_UART.c **** 
 266:Generated_Source\PSoC4/UART_PC_UART.c ****     #if !(UART_PC_CY_SCBIP_V0 || UART_PC_CY_SCBIP_V1)
 267:Generated_Source\PSoC4/UART_PC_UART.c ****         UART_PC_UART_FLOW_CTRL_REG = UART_PC_UART_DEFAULT_FLOW_CTRL;
  71              		.loc 1 267 0
  72 0032 0425     		movs	r5, #4
  73 0034 1A4B     		ldr	r3, .L2+48
  74 0036 1D60     		str	r5, [r3]
 268:Generated_Source\PSoC4/UART_PC_UART.c ****     #endif /* !(UART_PC_CY_SCBIP_V0 || UART_PC_CY_SCBIP_V1) */
ARM GAS  C:\Users\GCRIST~1\AppData\Local\Temp\cc4spGaH.s 			page 7


 269:Generated_Source\PSoC4/UART_PC_UART.c **** 
 270:Generated_Source\PSoC4/UART_PC_UART.c ****         /* Configure interrupt with UART handler but do not enable it */
 271:Generated_Source\PSoC4/UART_PC_UART.c ****     #if(UART_PC_SCB_IRQ_INTERNAL)
 272:Generated_Source\PSoC4/UART_PC_UART.c ****         CyIntDisable    (UART_PC_ISR_NUMBER);
  75              		.loc 1 272 0
  76 0038 0920     		movs	r0, #9
  77 003a FFF7FEFF 		bl	CyIntDisable
  78              	.LVL0:
 273:Generated_Source\PSoC4/UART_PC_UART.c ****         CyIntSetPriority(UART_PC_ISR_NUMBER, UART_PC_ISR_PRIORITY);
  79              		.loc 1 273 0
  80 003e 0321     		movs	r1, #3
  81 0040 0920     		movs	r0, #9
  82 0042 FFF7FEFF 		bl	CyIntSetPriority
  83              	.LVL1:
 274:Generated_Source\PSoC4/UART_PC_UART.c ****         (void) CyIntSetVector(UART_PC_ISR_NUMBER, &UART_PC_SPI_UART_ISR);
  84              		.loc 1 274 0
  85 0046 1749     		ldr	r1, .L2+52
  86 0048 0920     		movs	r0, #9
  87 004a FFF7FEFF 		bl	CyIntSetVector
  88              	.LVL2:
 275:Generated_Source\PSoC4/UART_PC_UART.c ****     #endif /* (UART_PC_SCB_IRQ_INTERNAL) */
 276:Generated_Source\PSoC4/UART_PC_UART.c **** 
 277:Generated_Source\PSoC4/UART_PC_UART.c ****         /* Configure WAKE interrupt */
 278:Generated_Source\PSoC4/UART_PC_UART.c ****     #if(UART_PC_UART_RX_WAKEUP_IRQ)
 279:Generated_Source\PSoC4/UART_PC_UART.c ****         CyIntDisable    (UART_PC_RX_WAKE_ISR_NUMBER);
 280:Generated_Source\PSoC4/UART_PC_UART.c ****         CyIntSetPriority(UART_PC_RX_WAKE_ISR_NUMBER, UART_PC_RX_WAKE_ISR_PRIORITY);
 281:Generated_Source\PSoC4/UART_PC_UART.c ****         (void) CyIntSetVector(UART_PC_RX_WAKE_ISR_NUMBER, &UART_PC_UART_WAKEUP_ISR);
 282:Generated_Source\PSoC4/UART_PC_UART.c ****     #endif /* (UART_PC_UART_RX_WAKEUP_IRQ) */
 283:Generated_Source\PSoC4/UART_PC_UART.c **** 
 284:Generated_Source\PSoC4/UART_PC_UART.c ****         /* Configure interrupt sources */
 285:Generated_Source\PSoC4/UART_PC_UART.c ****         UART_PC_INTR_I2C_EC_MASK_REG = UART_PC_UART_DEFAULT_INTR_I2C_EC_MASK;
  89              		.loc 1 285 0
  90 004e 164B     		ldr	r3, .L2+56
  91 0050 1C60     		str	r4, [r3]
 286:Generated_Source\PSoC4/UART_PC_UART.c ****         UART_PC_INTR_SPI_EC_MASK_REG = UART_PC_UART_DEFAULT_INTR_SPI_EC_MASK;
  92              		.loc 1 286 0
  93 0052 164B     		ldr	r3, .L2+60
  94 0054 1C60     		str	r4, [r3]
 287:Generated_Source\PSoC4/UART_PC_UART.c ****         UART_PC_INTR_SLAVE_MASK_REG  = UART_PC_UART_DEFAULT_INTR_SLAVE_MASK;
  95              		.loc 1 287 0
  96 0056 164B     		ldr	r3, .L2+64
  97 0058 1C60     		str	r4, [r3]
 288:Generated_Source\PSoC4/UART_PC_UART.c ****         UART_PC_INTR_MASTER_MASK_REG = UART_PC_UART_DEFAULT_INTR_MASTER_MASK;
  98              		.loc 1 288 0
  99 005a 164B     		ldr	r3, .L2+68
 100 005c 1C60     		str	r4, [r3]
 289:Generated_Source\PSoC4/UART_PC_UART.c ****         UART_PC_INTR_RX_MASK_REG     = UART_PC_UART_DEFAULT_INTR_RX_MASK;
 101              		.loc 1 289 0
 102 005e 164B     		ldr	r3, .L2+72
 103 0060 1D60     		str	r5, [r3]
 290:Generated_Source\PSoC4/UART_PC_UART.c ****         UART_PC_INTR_TX_MASK_REG     = UART_PC_UART_DEFAULT_INTR_TX_MASK;
 104              		.loc 1 290 0
 105 0062 164B     		ldr	r3, .L2+76
 106 0064 1C60     		str	r4, [r3]
 291:Generated_Source\PSoC4/UART_PC_UART.c **** 
 292:Generated_Source\PSoC4/UART_PC_UART.c ****         /* Configure TX interrupt sources to restore. */
 293:Generated_Source\PSoC4/UART_PC_UART.c ****         UART_PC_IntrTxMask = LO16(UART_PC_INTR_TX_MASK_REG);
ARM GAS  C:\Users\GCRIST~1\AppData\Local\Temp\cc4spGaH.s 			page 8


 107              		.loc 1 293 0
 108 0066 1A68     		ldr	r2, [r3]
 109 0068 154B     		ldr	r3, .L2+80
 110 006a 1A80     		strh	r2, [r3]
 294:Generated_Source\PSoC4/UART_PC_UART.c **** 
 295:Generated_Source\PSoC4/UART_PC_UART.c ****     #if(UART_PC_INTERNAL_RX_SW_BUFFER_CONST)
 296:Generated_Source\PSoC4/UART_PC_UART.c ****         UART_PC_rxBufferHead     = 0u;
 297:Generated_Source\PSoC4/UART_PC_UART.c ****         UART_PC_rxBufferTail     = 0u;
 298:Generated_Source\PSoC4/UART_PC_UART.c ****         UART_PC_rxBufferOverflow = 0u;
 299:Generated_Source\PSoC4/UART_PC_UART.c ****     #endif /* (UART_PC_INTERNAL_RX_SW_BUFFER_CONST) */
 300:Generated_Source\PSoC4/UART_PC_UART.c **** 
 301:Generated_Source\PSoC4/UART_PC_UART.c ****     #if(UART_PC_INTERNAL_TX_SW_BUFFER_CONST)
 302:Generated_Source\PSoC4/UART_PC_UART.c ****         UART_PC_txBufferHead = 0u;
 303:Generated_Source\PSoC4/UART_PC_UART.c ****         UART_PC_txBufferTail = 0u;
 304:Generated_Source\PSoC4/UART_PC_UART.c ****     #endif /* (UART_PC_INTERNAL_TX_SW_BUFFER_CONST) */
 305:Generated_Source\PSoC4/UART_PC_UART.c ****     }
 111              		.loc 1 305 0
 112              		@ sp needed
 113 006c 70BD     		pop	{r4, r5, r6, pc}
 114              	.L3:
 115 006e C046     		.align	2
 116              	.L2:
 117 0070 0B000002 		.word	33554443
 118 0074 00000840 		.word	1074266112
 119 0078 40000840 		.word	1074266176
 120 007c 01000A00 		.word	655361
 121 0080 48000840 		.word	1074266184
 122 0084 07000080 		.word	-2147483641
 123 0088 00030840 		.word	1074266880
 124 008c 04030840 		.word	1074266884
 125 0090 10030840 		.word	1074266896
 126 0094 44000840 		.word	1074266180
 127 0098 00020840 		.word	1074266624
 128 009c 04020840 		.word	1074266628
 129 00a0 50000840 		.word	1074266192
 130 00a4 00000000 		.word	UART_PC_SPI_UART_ISR
 131 00a8 880E0840 		.word	1074269832
 132 00ac C80E0840 		.word	1074269896
 133 00b0 480F0840 		.word	1074270024
 134 00b4 080F0840 		.word	1074269960
 135 00b8 C80F0840 		.word	1074270152
 136 00bc 880F0840 		.word	1074270088
 137 00c0 00000000 		.word	UART_PC_IntrTxMask
 138              		.cfi_endproc
 139              	.LFE1:
 140              		.size	UART_PC_UartInit, .-UART_PC_UartInit
 141              		.section	.text.UART_PC_UartPostEnable,"ax",%progbits
 142              		.align	2
 143              		.global	UART_PC_UartPostEnable
 144              		.code	16
 145              		.thumb_func
 146              		.type	UART_PC_UartPostEnable, %function
 147              	UART_PC_UartPostEnable:
 148              	.LFB2:
 306:Generated_Source\PSoC4/UART_PC_UART.c **** #endif /* (UART_PC_SCB_MODE_UNCONFIG_CONST_CFG) */
 307:Generated_Source\PSoC4/UART_PC_UART.c **** 
 308:Generated_Source\PSoC4/UART_PC_UART.c **** 
ARM GAS  C:\Users\GCRIST~1\AppData\Local\Temp\cc4spGaH.s 			page 9


 309:Generated_Source\PSoC4/UART_PC_UART.c **** /*******************************************************************************
 310:Generated_Source\PSoC4/UART_PC_UART.c **** * Function Name: UART_PC_UartPostEnable
 311:Generated_Source\PSoC4/UART_PC_UART.c **** ****************************************************************************//**
 312:Generated_Source\PSoC4/UART_PC_UART.c **** *
 313:Generated_Source\PSoC4/UART_PC_UART.c **** *  Restores HSIOM settings for the UART output pins (TX and/or RTS) to be
 314:Generated_Source\PSoC4/UART_PC_UART.c **** *  controlled by the SCB UART.
 315:Generated_Source\PSoC4/UART_PC_UART.c **** *
 316:Generated_Source\PSoC4/UART_PC_UART.c **** *******************************************************************************/
 317:Generated_Source\PSoC4/UART_PC_UART.c **** void UART_PC_UartPostEnable(void)
 318:Generated_Source\PSoC4/UART_PC_UART.c **** {
 149              		.loc 1 318 0
 150              		.cfi_startproc
 151              		@ args = 0, pretend = 0, frame = 0
 152              		@ frame_needed = 0, uses_anonymous_args = 0
 153              		@ link register save eliminated.
 319:Generated_Source\PSoC4/UART_PC_UART.c **** #if (UART_PC_SCB_MODE_UNCONFIG_CONST_CFG)
 320:Generated_Source\PSoC4/UART_PC_UART.c ****     #if (UART_PC_TX_SDA_MISO_PIN)
 321:Generated_Source\PSoC4/UART_PC_UART.c ****         if (UART_PC_CHECK_TX_SDA_MISO_PIN_USED)
 322:Generated_Source\PSoC4/UART_PC_UART.c ****         {
 323:Generated_Source\PSoC4/UART_PC_UART.c ****             /* Set SCB UART to drive the output pin */
 324:Generated_Source\PSoC4/UART_PC_UART.c ****             UART_PC_SET_HSIOM_SEL(UART_PC_TX_SDA_MISO_HSIOM_REG, UART_PC_TX_SDA_MISO_HSIOM_MASK,
 325:Generated_Source\PSoC4/UART_PC_UART.c ****                                            UART_PC_TX_SDA_MISO_HSIOM_POS, UART_PC_TX_SDA_MISO_HSIOM
 326:Generated_Source\PSoC4/UART_PC_UART.c ****         }
 327:Generated_Source\PSoC4/UART_PC_UART.c ****     #endif /* (UART_PC_TX_SDA_MISO_PIN_PIN) */
 328:Generated_Source\PSoC4/UART_PC_UART.c **** 
 329:Generated_Source\PSoC4/UART_PC_UART.c ****     #if !(UART_PC_CY_SCBIP_V0 || UART_PC_CY_SCBIP_V1)
 330:Generated_Source\PSoC4/UART_PC_UART.c ****         #if (UART_PC_RTS_SS0_PIN)
 331:Generated_Source\PSoC4/UART_PC_UART.c ****             if (UART_PC_CHECK_RTS_SS0_PIN_USED)
 332:Generated_Source\PSoC4/UART_PC_UART.c ****             {
 333:Generated_Source\PSoC4/UART_PC_UART.c ****                 /* Set SCB UART to drive the output pin */
 334:Generated_Source\PSoC4/UART_PC_UART.c ****                 UART_PC_SET_HSIOM_SEL(UART_PC_RTS_SS0_HSIOM_REG, UART_PC_RTS_SS0_HSIOM_MASK,
 335:Generated_Source\PSoC4/UART_PC_UART.c ****                                                UART_PC_RTS_SS0_HSIOM_POS, UART_PC_RTS_SS0_HSIOM_SEL
 336:Generated_Source\PSoC4/UART_PC_UART.c ****             }
 337:Generated_Source\PSoC4/UART_PC_UART.c ****         #endif /* (UART_PC_RTS_SS0_PIN) */
 338:Generated_Source\PSoC4/UART_PC_UART.c ****     #endif /* !(UART_PC_CY_SCBIP_V0 || UART_PC_CY_SCBIP_V1) */
 339:Generated_Source\PSoC4/UART_PC_UART.c **** 
 340:Generated_Source\PSoC4/UART_PC_UART.c **** #else
 341:Generated_Source\PSoC4/UART_PC_UART.c ****     #if (UART_PC_UART_TX_PIN)
 342:Generated_Source\PSoC4/UART_PC_UART.c ****          /* Set SCB UART to drive the output pin */
 343:Generated_Source\PSoC4/UART_PC_UART.c ****         UART_PC_SET_HSIOM_SEL(UART_PC_TX_HSIOM_REG, UART_PC_TX_HSIOM_MASK,
 154              		.loc 1 343 0
 155 0000 064A     		ldr	r2, .L5
 156 0002 1168     		ldr	r1, [r2]
 157 0004 064B     		ldr	r3, .L5+4
 158 0006 0B40     		ands	r3, r1
 159 0008 9021     		movs	r1, #144
 160 000a 0904     		lsls	r1, r1, #16
 161 000c 0B43     		orrs	r3, r1
 162 000e 1360     		str	r3, [r2]
 344:Generated_Source\PSoC4/UART_PC_UART.c ****                                        UART_PC_TX_HSIOM_POS, UART_PC_TX_HSIOM_SEL_UART);
 345:Generated_Source\PSoC4/UART_PC_UART.c ****     #endif /* (UART_PC_UART_TX_PIN) */
 346:Generated_Source\PSoC4/UART_PC_UART.c **** 
 347:Generated_Source\PSoC4/UART_PC_UART.c ****     #if (UART_PC_UART_RTS_PIN)
 348:Generated_Source\PSoC4/UART_PC_UART.c ****         /* Set SCB UART to drive the output pin */
 349:Generated_Source\PSoC4/UART_PC_UART.c ****         UART_PC_SET_HSIOM_SEL(UART_PC_RTS_HSIOM_REG, UART_PC_RTS_HSIOM_MASK,
 350:Generated_Source\PSoC4/UART_PC_UART.c ****                                        UART_PC_RTS_HSIOM_POS, UART_PC_RTS_HSIOM_SEL_UART);
 351:Generated_Source\PSoC4/UART_PC_UART.c ****     #endif /* (UART_PC_UART_RTS_PIN) */
ARM GAS  C:\Users\GCRIST~1\AppData\Local\Temp\cc4spGaH.s 			page 10


 352:Generated_Source\PSoC4/UART_PC_UART.c **** #endif /* (UART_PC_SCB_MODE_UNCONFIG_CONST_CFG) */
 353:Generated_Source\PSoC4/UART_PC_UART.c **** 
 354:Generated_Source\PSoC4/UART_PC_UART.c ****     /* Restore TX interrupt sources. */
 355:Generated_Source\PSoC4/UART_PC_UART.c ****     UART_PC_SetTxInterruptMode(UART_PC_IntrTxMask);
 163              		.loc 1 355 0
 164 0010 044B     		ldr	r3, .L5+8
 165 0012 1A88     		ldrh	r2, [r3]
 166 0014 044B     		ldr	r3, .L5+12
 167 0016 1A60     		str	r2, [r3]
 356:Generated_Source\PSoC4/UART_PC_UART.c **** }
 168              		.loc 1 356 0
 169              		@ sp needed
 170 0018 7047     		bx	lr
 171              	.L6:
 172 001a C046     		.align	2
 173              	.L5:
 174 001c 00000240 		.word	1073872896
 175 0020 FFFF0FFF 		.word	-15728641
 176 0024 00000000 		.word	UART_PC_IntrTxMask
 177 0028 880F0840 		.word	1074270088
 178              		.cfi_endproc
 179              	.LFE2:
 180              		.size	UART_PC_UartPostEnable, .-UART_PC_UartPostEnable
 181              		.section	.text.UART_PC_UartStop,"ax",%progbits
 182              		.align	2
 183              		.global	UART_PC_UartStop
 184              		.code	16
 185              		.thumb_func
 186              		.type	UART_PC_UartStop, %function
 187              	UART_PC_UartStop:
 188              	.LFB3:
 357:Generated_Source\PSoC4/UART_PC_UART.c **** 
 358:Generated_Source\PSoC4/UART_PC_UART.c **** 
 359:Generated_Source\PSoC4/UART_PC_UART.c **** /*******************************************************************************
 360:Generated_Source\PSoC4/UART_PC_UART.c **** * Function Name: UART_PC_UartStop
 361:Generated_Source\PSoC4/UART_PC_UART.c **** ****************************************************************************//**
 362:Generated_Source\PSoC4/UART_PC_UART.c **** *
 363:Generated_Source\PSoC4/UART_PC_UART.c **** *  Changes the HSIOM settings for the UART output pins (TX and/or RTS) to keep
 364:Generated_Source\PSoC4/UART_PC_UART.c **** *  them inactive after the block is disabled. The output pins are controlled by
 365:Generated_Source\PSoC4/UART_PC_UART.c **** *  the GPIO data register. Also, the function disables the skip start feature
 366:Generated_Source\PSoC4/UART_PC_UART.c **** *  to not cause it to trigger after the component is enabled.
 367:Generated_Source\PSoC4/UART_PC_UART.c **** *
 368:Generated_Source\PSoC4/UART_PC_UART.c **** *******************************************************************************/
 369:Generated_Source\PSoC4/UART_PC_UART.c **** void UART_PC_UartStop(void)
 370:Generated_Source\PSoC4/UART_PC_UART.c **** {
 189              		.loc 1 370 0
 190              		.cfi_startproc
 191              		@ args = 0, pretend = 0, frame = 0
 192              		@ frame_needed = 0, uses_anonymous_args = 0
 193              		@ link register save eliminated.
 371:Generated_Source\PSoC4/UART_PC_UART.c **** #if(UART_PC_SCB_MODE_UNCONFIG_CONST_CFG)
 372:Generated_Source\PSoC4/UART_PC_UART.c ****     #if (UART_PC_TX_SDA_MISO_PIN)
 373:Generated_Source\PSoC4/UART_PC_UART.c ****         if (UART_PC_CHECK_TX_SDA_MISO_PIN_USED)
 374:Generated_Source\PSoC4/UART_PC_UART.c ****         {
 375:Generated_Source\PSoC4/UART_PC_UART.c ****             /* Set GPIO to drive output pin */
 376:Generated_Source\PSoC4/UART_PC_UART.c ****             UART_PC_SET_HSIOM_SEL(UART_PC_TX_SDA_MISO_HSIOM_REG, UART_PC_TX_SDA_MISO_HSIOM_MASK,
 377:Generated_Source\PSoC4/UART_PC_UART.c ****                                            UART_PC_TX_SDA_MISO_HSIOM_POS, UART_PC_TX_SDA_MISO_HSIOM
ARM GAS  C:\Users\GCRIST~1\AppData\Local\Temp\cc4spGaH.s 			page 11


 378:Generated_Source\PSoC4/UART_PC_UART.c ****         }
 379:Generated_Source\PSoC4/UART_PC_UART.c ****     #endif /* (UART_PC_TX_SDA_MISO_PIN_PIN) */
 380:Generated_Source\PSoC4/UART_PC_UART.c **** 
 381:Generated_Source\PSoC4/UART_PC_UART.c ****     #if !(UART_PC_CY_SCBIP_V0 || UART_PC_CY_SCBIP_V1)
 382:Generated_Source\PSoC4/UART_PC_UART.c ****         #if (UART_PC_RTS_SS0_PIN)
 383:Generated_Source\PSoC4/UART_PC_UART.c ****             if (UART_PC_CHECK_RTS_SS0_PIN_USED)
 384:Generated_Source\PSoC4/UART_PC_UART.c ****             {
 385:Generated_Source\PSoC4/UART_PC_UART.c ****                 /* Set output pin state after block is disabled */
 386:Generated_Source\PSoC4/UART_PC_UART.c ****                 UART_PC_uart_rts_spi_ss0_Write(UART_PC_GET_UART_RTS_INACTIVE);
 387:Generated_Source\PSoC4/UART_PC_UART.c **** 
 388:Generated_Source\PSoC4/UART_PC_UART.c ****                 /* Set GPIO to drive output pin */
 389:Generated_Source\PSoC4/UART_PC_UART.c ****                 UART_PC_SET_HSIOM_SEL(UART_PC_RTS_SS0_HSIOM_REG, UART_PC_RTS_SS0_HSIOM_MASK,
 390:Generated_Source\PSoC4/UART_PC_UART.c ****                                                UART_PC_RTS_SS0_HSIOM_POS, UART_PC_RTS_SS0_HSIOM_SEL
 391:Generated_Source\PSoC4/UART_PC_UART.c ****             }
 392:Generated_Source\PSoC4/UART_PC_UART.c ****         #endif /* (UART_PC_RTS_SS0_PIN) */
 393:Generated_Source\PSoC4/UART_PC_UART.c ****     #endif /* !(UART_PC_CY_SCBIP_V0 || UART_PC_CY_SCBIP_V1) */
 394:Generated_Source\PSoC4/UART_PC_UART.c **** 
 395:Generated_Source\PSoC4/UART_PC_UART.c **** #else
 396:Generated_Source\PSoC4/UART_PC_UART.c ****     #if (UART_PC_UART_TX_PIN)
 397:Generated_Source\PSoC4/UART_PC_UART.c ****         /* Set GPIO to drive output pin */
 398:Generated_Source\PSoC4/UART_PC_UART.c ****         UART_PC_SET_HSIOM_SEL(UART_PC_TX_HSIOM_REG, UART_PC_TX_HSIOM_MASK,
 194              		.loc 1 398 0
 195 0000 064A     		ldr	r2, .L8
 196 0002 1168     		ldr	r1, [r2]
 197 0004 064B     		ldr	r3, .L8+4
 198 0006 0B40     		ands	r3, r1
 199 0008 1360     		str	r3, [r2]
 399:Generated_Source\PSoC4/UART_PC_UART.c ****                                        UART_PC_TX_HSIOM_POS, UART_PC_TX_HSIOM_SEL_GPIO);
 400:Generated_Source\PSoC4/UART_PC_UART.c ****     #endif /* (UART_PC_UART_TX_PIN) */
 401:Generated_Source\PSoC4/UART_PC_UART.c **** 
 402:Generated_Source\PSoC4/UART_PC_UART.c ****     #if (UART_PC_UART_RTS_PIN)
 403:Generated_Source\PSoC4/UART_PC_UART.c ****         /* Set output pin state after block is disabled */
 404:Generated_Source\PSoC4/UART_PC_UART.c ****         UART_PC_rts_Write(UART_PC_GET_UART_RTS_INACTIVE);
 405:Generated_Source\PSoC4/UART_PC_UART.c **** 
 406:Generated_Source\PSoC4/UART_PC_UART.c ****         /* Set GPIO to drive output pin */
 407:Generated_Source\PSoC4/UART_PC_UART.c ****         UART_PC_SET_HSIOM_SEL(UART_PC_RTS_HSIOM_REG, UART_PC_RTS_HSIOM_MASK,
 408:Generated_Source\PSoC4/UART_PC_UART.c ****                                        UART_PC_RTS_HSIOM_POS, UART_PC_RTS_HSIOM_SEL_GPIO);
 409:Generated_Source\PSoC4/UART_PC_UART.c ****     #endif /* (UART_PC_UART_RTS_PIN) */
 410:Generated_Source\PSoC4/UART_PC_UART.c **** 
 411:Generated_Source\PSoC4/UART_PC_UART.c **** #endif /* (UART_PC_SCB_MODE_UNCONFIG_CONST_CFG) */
 412:Generated_Source\PSoC4/UART_PC_UART.c **** 
 413:Generated_Source\PSoC4/UART_PC_UART.c **** #if (UART_PC_UART_WAKE_ENABLE_CONST)
 414:Generated_Source\PSoC4/UART_PC_UART.c ****     /* Disable skip start feature used for wakeup */
 415:Generated_Source\PSoC4/UART_PC_UART.c ****     UART_PC_UART_RX_CTRL_REG &= (uint32) ~UART_PC_UART_RX_CTRL_SKIP_START;
 416:Generated_Source\PSoC4/UART_PC_UART.c **** #endif /* (UART_PC_UART_WAKE_ENABLE_CONST) */
 417:Generated_Source\PSoC4/UART_PC_UART.c **** 
 418:Generated_Source\PSoC4/UART_PC_UART.c ****     /* Store TX interrupt sources (exclude level triggered). */
 419:Generated_Source\PSoC4/UART_PC_UART.c ****     UART_PC_IntrTxMask = LO16(UART_PC_GetTxInterruptMode() & UART_PC_INTR_UART_TX_RESTORE);
 200              		.loc 1 419 0
 201 000a 064B     		ldr	r3, .L8+8
 202 000c 1A68     		ldr	r2, [r3]
 203 000e E423     		movs	r3, #228
 204 0010 DB00     		lsls	r3, r3, #3
 205 0012 1340     		ands	r3, r2
 206 0014 044A     		ldr	r2, .L8+12
 207 0016 1380     		strh	r3, [r2]
 420:Generated_Source\PSoC4/UART_PC_UART.c **** }
ARM GAS  C:\Users\GCRIST~1\AppData\Local\Temp\cc4spGaH.s 			page 12


 208              		.loc 1 420 0
 209              		@ sp needed
 210 0018 7047     		bx	lr
 211              	.L9:
 212 001a C046     		.align	2
 213              	.L8:
 214 001c 00000240 		.word	1073872896
 215 0020 FFFF0FFF 		.word	-15728641
 216 0024 880F0840 		.word	1074270088
 217 0028 00000000 		.word	UART_PC_IntrTxMask
 218              		.cfi_endproc
 219              	.LFE3:
 220              		.size	UART_PC_UartStop, .-UART_PC_UartStop
 221              		.section	.text.UART_PC_UartSetRxAddress,"ax",%progbits
 222              		.align	2
 223              		.global	UART_PC_UartSetRxAddress
 224              		.code	16
 225              		.thumb_func
 226              		.type	UART_PC_UartSetRxAddress, %function
 227              	UART_PC_UartSetRxAddress:
 228              	.LFB4:
 421:Generated_Source\PSoC4/UART_PC_UART.c **** 
 422:Generated_Source\PSoC4/UART_PC_UART.c **** 
 423:Generated_Source\PSoC4/UART_PC_UART.c **** /*******************************************************************************
 424:Generated_Source\PSoC4/UART_PC_UART.c **** * Function Name: UART_PC_UartSetRxAddress
 425:Generated_Source\PSoC4/UART_PC_UART.c **** ****************************************************************************//**
 426:Generated_Source\PSoC4/UART_PC_UART.c **** *
 427:Generated_Source\PSoC4/UART_PC_UART.c **** *  Sets the hardware detectable receiver address for the UART in the
 428:Generated_Source\PSoC4/UART_PC_UART.c **** *  Multiprocessor mode.
 429:Generated_Source\PSoC4/UART_PC_UART.c **** *
 430:Generated_Source\PSoC4/UART_PC_UART.c **** *  \param address: Address for hardware address detection.
 431:Generated_Source\PSoC4/UART_PC_UART.c **** *
 432:Generated_Source\PSoC4/UART_PC_UART.c **** *******************************************************************************/
 433:Generated_Source\PSoC4/UART_PC_UART.c **** void UART_PC_UartSetRxAddress(uint32 address)
 434:Generated_Source\PSoC4/UART_PC_UART.c **** {
 229              		.loc 1 434 0
 230              		.cfi_startproc
 231              		@ args = 0, pretend = 0, frame = 0
 232              		@ frame_needed = 0, uses_anonymous_args = 0
 233              		@ link register save eliminated.
 234              	.LVL3:
 435:Generated_Source\PSoC4/UART_PC_UART.c ****      uint32 matchReg;
 436:Generated_Source\PSoC4/UART_PC_UART.c **** 
 437:Generated_Source\PSoC4/UART_PC_UART.c ****     matchReg = UART_PC_RX_MATCH_REG;
 235              		.loc 1 437 0
 236 0000 034A     		ldr	r2, .L11
 237 0002 1368     		ldr	r3, [r2]
 238              	.LVL4:
 438:Generated_Source\PSoC4/UART_PC_UART.c **** 
 439:Generated_Source\PSoC4/UART_PC_UART.c ****     matchReg &= ((uint32) ~UART_PC_RX_MATCH_ADDR_MASK); /* Clear address bits */
 239              		.loc 1 439 0
 240 0004 FF21     		movs	r1, #255
 241 0006 8B43     		bics	r3, r1
 242              	.LVL5:
 440:Generated_Source\PSoC4/UART_PC_UART.c ****     matchReg |= ((uint32)  (address & UART_PC_RX_MATCH_ADDR_MASK)); /* Set address  */
 243              		.loc 1 440 0
 244 0008 0840     		ands	r0, r1
ARM GAS  C:\Users\GCRIST~1\AppData\Local\Temp\cc4spGaH.s 			page 13


 245              	.LVL6:
 246 000a 1843     		orrs	r0, r3
 247              	.LVL7:
 441:Generated_Source\PSoC4/UART_PC_UART.c **** 
 442:Generated_Source\PSoC4/UART_PC_UART.c ****     UART_PC_RX_MATCH_REG = matchReg;
 248              		.loc 1 442 0
 249 000c 1060     		str	r0, [r2]
 443:Generated_Source\PSoC4/UART_PC_UART.c **** }
 250              		.loc 1 443 0
 251              		@ sp needed
 252 000e 7047     		bx	lr
 253              	.L12:
 254              		.align	2
 255              	.L11:
 256 0010 10030840 		.word	1074266896
 257              		.cfi_endproc
 258              	.LFE4:
 259              		.size	UART_PC_UartSetRxAddress, .-UART_PC_UartSetRxAddress
 260              		.section	.text.UART_PC_UartSetRxAddressMask,"ax",%progbits
 261              		.align	2
 262              		.global	UART_PC_UartSetRxAddressMask
 263              		.code	16
 264              		.thumb_func
 265              		.type	UART_PC_UartSetRxAddressMask, %function
 266              	UART_PC_UartSetRxAddressMask:
 267              	.LFB5:
 444:Generated_Source\PSoC4/UART_PC_UART.c **** 
 445:Generated_Source\PSoC4/UART_PC_UART.c **** 
 446:Generated_Source\PSoC4/UART_PC_UART.c **** /*******************************************************************************
 447:Generated_Source\PSoC4/UART_PC_UART.c **** * Function Name: UART_PC_UartSetRxAddressMask
 448:Generated_Source\PSoC4/UART_PC_UART.c **** ****************************************************************************//**
 449:Generated_Source\PSoC4/UART_PC_UART.c **** *
 450:Generated_Source\PSoC4/UART_PC_UART.c **** *  Sets the hardware address mask for the UART in the Multiprocessor mode.
 451:Generated_Source\PSoC4/UART_PC_UART.c **** *
 452:Generated_Source\PSoC4/UART_PC_UART.c **** *  \param addressMask: Address mask.
 453:Generated_Source\PSoC4/UART_PC_UART.c **** *   - Bit value 0 – excludes bit from address comparison.
 454:Generated_Source\PSoC4/UART_PC_UART.c **** *   - Bit value 1 – the bit needs to match with the corresponding bit
 455:Generated_Source\PSoC4/UART_PC_UART.c **** *     of the address.
 456:Generated_Source\PSoC4/UART_PC_UART.c **** *
 457:Generated_Source\PSoC4/UART_PC_UART.c **** *******************************************************************************/
 458:Generated_Source\PSoC4/UART_PC_UART.c **** void UART_PC_UartSetRxAddressMask(uint32 addressMask)
 459:Generated_Source\PSoC4/UART_PC_UART.c **** {
 268              		.loc 1 459 0
 269              		.cfi_startproc
 270              		@ args = 0, pretend = 0, frame = 0
 271              		@ frame_needed = 0, uses_anonymous_args = 0
 272              		@ link register save eliminated.
 273              	.LVL8:
 460:Generated_Source\PSoC4/UART_PC_UART.c ****     uint32 matchReg;
 461:Generated_Source\PSoC4/UART_PC_UART.c **** 
 462:Generated_Source\PSoC4/UART_PC_UART.c ****     matchReg = UART_PC_RX_MATCH_REG;
 274              		.loc 1 462 0
 275 0000 034A     		ldr	r2, .L14
 276 0002 1168     		ldr	r1, [r2]
 277              	.LVL9:
 463:Generated_Source\PSoC4/UART_PC_UART.c **** 
 464:Generated_Source\PSoC4/UART_PC_UART.c ****     matchReg &= ((uint32) ~UART_PC_RX_MATCH_MASK_MASK); /* Clear address mask bits */
ARM GAS  C:\Users\GCRIST~1\AppData\Local\Temp\cc4spGaH.s 			page 14


 278              		.loc 1 464 0
 279 0004 034B     		ldr	r3, .L14+4
 280 0006 0B40     		ands	r3, r1
 281              	.LVL10:
 465:Generated_Source\PSoC4/UART_PC_UART.c ****     matchReg |= ((uint32) (addressMask << UART_PC_RX_MATCH_MASK_POS));
 282              		.loc 1 465 0
 283 0008 0004     		lsls	r0, r0, #16
 284              	.LVL11:
 285 000a 1843     		orrs	r0, r3
 286              	.LVL12:
 466:Generated_Source\PSoC4/UART_PC_UART.c **** 
 467:Generated_Source\PSoC4/UART_PC_UART.c ****     UART_PC_RX_MATCH_REG = matchReg;
 287              		.loc 1 467 0
 288 000c 1060     		str	r0, [r2]
 468:Generated_Source\PSoC4/UART_PC_UART.c **** }
 289              		.loc 1 468 0
 290              		@ sp needed
 291 000e 7047     		bx	lr
 292              	.L15:
 293              		.align	2
 294              	.L14:
 295 0010 10030840 		.word	1074266896
 296 0014 FFFF00FF 		.word	-16711681
 297              		.cfi_endproc
 298              	.LFE5:
 299              		.size	UART_PC_UartSetRxAddressMask, .-UART_PC_UartSetRxAddressMask
 300              		.section	.text.UART_PC_UartGetChar,"ax",%progbits
 301              		.align	2
 302              		.global	UART_PC_UartGetChar
 303              		.code	16
 304              		.thumb_func
 305              		.type	UART_PC_UartGetChar, %function
 306              	UART_PC_UartGetChar:
 307              	.LFB6:
 469:Generated_Source\PSoC4/UART_PC_UART.c **** 
 470:Generated_Source\PSoC4/UART_PC_UART.c **** 
 471:Generated_Source\PSoC4/UART_PC_UART.c **** #if(UART_PC_UART_RX_DIRECTION)
 472:Generated_Source\PSoC4/UART_PC_UART.c ****     /*******************************************************************************
 473:Generated_Source\PSoC4/UART_PC_UART.c ****     * Function Name: UART_PC_UartGetChar
 474:Generated_Source\PSoC4/UART_PC_UART.c ****     ****************************************************************************//**
 475:Generated_Source\PSoC4/UART_PC_UART.c ****     *
 476:Generated_Source\PSoC4/UART_PC_UART.c ****     *  Retrieves next data element from receive buffer.
 477:Generated_Source\PSoC4/UART_PC_UART.c ****     *  This function is designed for ASCII characters and returns a char where
 478:Generated_Source\PSoC4/UART_PC_UART.c ****     *  1 to 255 are valid characters and 0 indicates an error occurred or no data
 479:Generated_Source\PSoC4/UART_PC_UART.c ****     *  is present.
 480:Generated_Source\PSoC4/UART_PC_UART.c ****     *  - RX software buffer is disabled: Returns data element retrieved from RX
 481:Generated_Source\PSoC4/UART_PC_UART.c ****     *    FIFO.
 482:Generated_Source\PSoC4/UART_PC_UART.c ****     *  - RX software buffer is enabled: Returns data element from the software
 483:Generated_Source\PSoC4/UART_PC_UART.c ****     *    receive buffer.
 484:Generated_Source\PSoC4/UART_PC_UART.c ****     *
 485:Generated_Source\PSoC4/UART_PC_UART.c ****     *  \return
 486:Generated_Source\PSoC4/UART_PC_UART.c ****     *   Next data element from the receive buffer. ASCII character values from
 487:Generated_Source\PSoC4/UART_PC_UART.c ****     *   1 to 255 are valid. A returned zero signifies an error condition or no
 488:Generated_Source\PSoC4/UART_PC_UART.c ****     *   data available.
 489:Generated_Source\PSoC4/UART_PC_UART.c ****     *
 490:Generated_Source\PSoC4/UART_PC_UART.c ****     *  \sideeffect
 491:Generated_Source\PSoC4/UART_PC_UART.c ****     *   The errors bits may not correspond with reading characters due to
ARM GAS  C:\Users\GCRIST~1\AppData\Local\Temp\cc4spGaH.s 			page 15


 492:Generated_Source\PSoC4/UART_PC_UART.c ****     *   RX FIFO and software buffer usage.
 493:Generated_Source\PSoC4/UART_PC_UART.c ****     *   RX software buffer is enabled: The internal software buffer overflow
 494:Generated_Source\PSoC4/UART_PC_UART.c ****     *   is not treated as an error condition.
 495:Generated_Source\PSoC4/UART_PC_UART.c ****     *   Check UART_PC_rxBufferOverflow to capture that error condition.
 496:Generated_Source\PSoC4/UART_PC_UART.c ****     *
 497:Generated_Source\PSoC4/UART_PC_UART.c ****     *******************************************************************************/
 498:Generated_Source\PSoC4/UART_PC_UART.c ****     uint32 UART_PC_UartGetChar(void)
 499:Generated_Source\PSoC4/UART_PC_UART.c ****     {
 308              		.loc 1 499 0
 309              		.cfi_startproc
 310              		@ args = 0, pretend = 0, frame = 0
 311              		@ frame_needed = 0, uses_anonymous_args = 0
 312 0000 10B5     		push	{r4, lr}
 313              		.cfi_def_cfa_offset 8
 314              		.cfi_offset 4, -8
 315              		.cfi_offset 14, -4
 316              	.LVL13:
 500:Generated_Source\PSoC4/UART_PC_UART.c ****         uint32 rxData = 0u;
 501:Generated_Source\PSoC4/UART_PC_UART.c **** 
 502:Generated_Source\PSoC4/UART_PC_UART.c ****         /* Reads data only if there is data to read */
 503:Generated_Source\PSoC4/UART_PC_UART.c ****         if (0u != UART_PC_SpiUartGetRxBufferSize())
 317              		.loc 1 503 0
 318 0002 FFF7FEFF 		bl	UART_PC_SpiUartGetRxBufferSize
 319              	.LVL14:
 320 0006 0028     		cmp	r0, #0
 321 0008 02D0     		beq	.L19
 504:Generated_Source\PSoC4/UART_PC_UART.c ****         {
 505:Generated_Source\PSoC4/UART_PC_UART.c ****             rxData = UART_PC_SpiUartReadRxData();
 322              		.loc 1 505 0
 323 000a FFF7FEFF 		bl	UART_PC_SpiUartReadRxData
 324              	.LVL15:
 325 000e 00E0     		b	.L17
 326              	.LVL16:
 327              	.L19:
 500:Generated_Source\PSoC4/UART_PC_UART.c ****         uint32 rxData = 0u;
 328              		.loc 1 500 0
 329 0010 0020     		movs	r0, #0
 330              	.LVL17:
 331              	.L17:
 506:Generated_Source\PSoC4/UART_PC_UART.c ****         }
 507:Generated_Source\PSoC4/UART_PC_UART.c **** 
 508:Generated_Source\PSoC4/UART_PC_UART.c ****         if (UART_PC_CHECK_INTR_RX(UART_PC_INTR_RX_ERR))
 332              		.loc 1 508 0
 333 0012 054B     		ldr	r3, .L20
 334 0014 1A68     		ldr	r2, [r3]
 335 0016 D823     		movs	r3, #216
 336 0018 9B00     		lsls	r3, r3, #2
 337 001a 1A42     		tst	r2, r3
 338 001c 03D0     		beq	.L18
 339              	.LVL18:
 509:Generated_Source\PSoC4/UART_PC_UART.c ****         {
 510:Generated_Source\PSoC4/UART_PC_UART.c ****             rxData = 0u; /* Error occurred: returns zero */
 511:Generated_Source\PSoC4/UART_PC_UART.c ****             UART_PC_ClearRxInterruptSource(UART_PC_INTR_RX_ERR);
 340              		.loc 1 511 0
 341 001e 1A00     		movs	r2, r3
 342 0020 014B     		ldr	r3, .L20
 343 0022 1A60     		str	r2, [r3]
ARM GAS  C:\Users\GCRIST~1\AppData\Local\Temp\cc4spGaH.s 			page 16


 510:Generated_Source\PSoC4/UART_PC_UART.c ****             UART_PC_ClearRxInterruptSource(UART_PC_INTR_RX_ERR);
 344              		.loc 1 510 0
 345 0024 0020     		movs	r0, #0
 346              	.LVL19:
 347              	.L18:
 512:Generated_Source\PSoC4/UART_PC_UART.c ****         }
 513:Generated_Source\PSoC4/UART_PC_UART.c **** 
 514:Generated_Source\PSoC4/UART_PC_UART.c ****         return (rxData);
 515:Generated_Source\PSoC4/UART_PC_UART.c ****     }
 348              		.loc 1 515 0
 349              		@ sp needed
 350 0026 10BD     		pop	{r4, pc}
 351              	.L21:
 352              		.align	2
 353              	.L20:
 354 0028 C00F0840 		.word	1074270144
 355              		.cfi_endproc
 356              	.LFE6:
 357              		.size	UART_PC_UartGetChar, .-UART_PC_UartGetChar
 358              		.section	.text.UART_PC_UartGetByte,"ax",%progbits
 359              		.align	2
 360              		.global	UART_PC_UartGetByte
 361              		.code	16
 362              		.thumb_func
 363              		.type	UART_PC_UartGetByte, %function
 364              	UART_PC_UartGetByte:
 365              	.LFB7:
 516:Generated_Source\PSoC4/UART_PC_UART.c **** 
 517:Generated_Source\PSoC4/UART_PC_UART.c **** 
 518:Generated_Source\PSoC4/UART_PC_UART.c ****     /*******************************************************************************
 519:Generated_Source\PSoC4/UART_PC_UART.c ****     * Function Name: UART_PC_UartGetByte
 520:Generated_Source\PSoC4/UART_PC_UART.c ****     ****************************************************************************//**
 521:Generated_Source\PSoC4/UART_PC_UART.c ****     *
 522:Generated_Source\PSoC4/UART_PC_UART.c ****     *  Retrieves the next data element from the receive buffer, returns the
 523:Generated_Source\PSoC4/UART_PC_UART.c ****     *  received byte and error condition.
 524:Generated_Source\PSoC4/UART_PC_UART.c ****     *   - The RX software buffer is disabled: returns the data element retrieved
 525:Generated_Source\PSoC4/UART_PC_UART.c ****     *     from the RX FIFO. Undefined data will be returned if the RX FIFO is
 526:Generated_Source\PSoC4/UART_PC_UART.c ****     *     empty.
 527:Generated_Source\PSoC4/UART_PC_UART.c ****     *   - The RX software buffer is enabled: returns data element from the
 528:Generated_Source\PSoC4/UART_PC_UART.c ****     *     software receive buffer.
 529:Generated_Source\PSoC4/UART_PC_UART.c ****     *
 530:Generated_Source\PSoC4/UART_PC_UART.c ****     *  \return
 531:Generated_Source\PSoC4/UART_PC_UART.c ****     *   Bits 7-0 contain the next data element from the receive buffer and
 532:Generated_Source\PSoC4/UART_PC_UART.c ****     *   other bits contain the error condition.
 533:Generated_Source\PSoC4/UART_PC_UART.c ****     *   - UART_PC_UART_RX_OVERFLOW - Attempt to write to a full
 534:Generated_Source\PSoC4/UART_PC_UART.c ****     *     receiver FIFO.
 535:Generated_Source\PSoC4/UART_PC_UART.c ****     *   - UART_PC_UART_RX_UNDERFLOW    Attempt to read from an empty
 536:Generated_Source\PSoC4/UART_PC_UART.c ****     *     receiver FIFO.
 537:Generated_Source\PSoC4/UART_PC_UART.c ****     *   - UART_PC_UART_RX_FRAME_ERROR - UART framing error detected.
 538:Generated_Source\PSoC4/UART_PC_UART.c ****     *   - UART_PC_UART_RX_PARITY_ERROR - UART parity error detected.
 539:Generated_Source\PSoC4/UART_PC_UART.c ****     *
 540:Generated_Source\PSoC4/UART_PC_UART.c ****     *  \sideeffect
 541:Generated_Source\PSoC4/UART_PC_UART.c ****     *   The errors bits may not correspond with reading characters due to
 542:Generated_Source\PSoC4/UART_PC_UART.c ****     *   RX FIFO and software buffer usage.
 543:Generated_Source\PSoC4/UART_PC_UART.c ****     *   RX software buffer is enabled: The internal software buffer overflow
 544:Generated_Source\PSoC4/UART_PC_UART.c ****     *   is not treated as an error condition.
 545:Generated_Source\PSoC4/UART_PC_UART.c ****     *   Check UART_PC_rxBufferOverflow to capture that error condition.
ARM GAS  C:\Users\GCRIST~1\AppData\Local\Temp\cc4spGaH.s 			page 17


 546:Generated_Source\PSoC4/UART_PC_UART.c ****     *
 547:Generated_Source\PSoC4/UART_PC_UART.c ****     *******************************************************************************/
 548:Generated_Source\PSoC4/UART_PC_UART.c ****     uint32 UART_PC_UartGetByte(void)
 549:Generated_Source\PSoC4/UART_PC_UART.c ****     {
 366              		.loc 1 549 0
 367              		.cfi_startproc
 368              		@ args = 0, pretend = 0, frame = 0
 369              		@ frame_needed = 0, uses_anonymous_args = 0
 370 0000 10B5     		push	{r4, lr}
 371              		.cfi_def_cfa_offset 8
 372              		.cfi_offset 4, -8
 373              		.cfi_offset 14, -4
 550:Generated_Source\PSoC4/UART_PC_UART.c ****         uint32 rxData;
 551:Generated_Source\PSoC4/UART_PC_UART.c ****         uint32 tmpStatus;
 552:Generated_Source\PSoC4/UART_PC_UART.c **** 
 553:Generated_Source\PSoC4/UART_PC_UART.c ****         #if (UART_PC_CHECK_RX_SW_BUFFER)
 554:Generated_Source\PSoC4/UART_PC_UART.c ****         {
 555:Generated_Source\PSoC4/UART_PC_UART.c ****             UART_PC_DisableInt();
 556:Generated_Source\PSoC4/UART_PC_UART.c ****         }
 557:Generated_Source\PSoC4/UART_PC_UART.c ****         #endif
 558:Generated_Source\PSoC4/UART_PC_UART.c **** 
 559:Generated_Source\PSoC4/UART_PC_UART.c ****         if (0u != UART_PC_SpiUartGetRxBufferSize())
 374              		.loc 1 559 0
 375 0002 FFF7FEFF 		bl	UART_PC_SpiUartGetRxBufferSize
 376              	.LVL20:
 377 0006 0028     		cmp	r0, #0
 378 0008 02D0     		beq	.L23
 560:Generated_Source\PSoC4/UART_PC_UART.c ****         {
 561:Generated_Source\PSoC4/UART_PC_UART.c ****             /* Enables interrupt to receive more bytes: at least one byte is in
 562:Generated_Source\PSoC4/UART_PC_UART.c ****             * buffer.
 563:Generated_Source\PSoC4/UART_PC_UART.c ****             */
 564:Generated_Source\PSoC4/UART_PC_UART.c ****             #if (UART_PC_CHECK_RX_SW_BUFFER)
 565:Generated_Source\PSoC4/UART_PC_UART.c ****             {
 566:Generated_Source\PSoC4/UART_PC_UART.c ****                 UART_PC_EnableInt();
 567:Generated_Source\PSoC4/UART_PC_UART.c ****             }
 568:Generated_Source\PSoC4/UART_PC_UART.c ****             #endif
 569:Generated_Source\PSoC4/UART_PC_UART.c **** 
 570:Generated_Source\PSoC4/UART_PC_UART.c ****             /* Get received byte */
 571:Generated_Source\PSoC4/UART_PC_UART.c ****             rxData = UART_PC_SpiUartReadRxData();
 379              		.loc 1 571 0
 380 000a FFF7FEFF 		bl	UART_PC_SpiUartReadRxData
 381              	.LVL21:
 382 000e 01E0     		b	.L24
 383              	.LVL22:
 384              	.L23:
 572:Generated_Source\PSoC4/UART_PC_UART.c ****         }
 573:Generated_Source\PSoC4/UART_PC_UART.c ****         else
 574:Generated_Source\PSoC4/UART_PC_UART.c ****         {
 575:Generated_Source\PSoC4/UART_PC_UART.c ****             /* Reads a byte directly from RX FIFO: underflow is raised in the
 576:Generated_Source\PSoC4/UART_PC_UART.c ****             * case of empty. Otherwise the first received byte will be read.
 577:Generated_Source\PSoC4/UART_PC_UART.c ****             */
 578:Generated_Source\PSoC4/UART_PC_UART.c ****             rxData = UART_PC_RX_FIFO_RD_REG;
 385              		.loc 1 578 0
 386 0010 064B     		ldr	r3, .L25
 387 0012 1868     		ldr	r0, [r3]
 388              	.LVL23:
 389              	.L24:
ARM GAS  C:\Users\GCRIST~1\AppData\Local\Temp\cc4spGaH.s 			page 18


 579:Generated_Source\PSoC4/UART_PC_UART.c **** 
 580:Generated_Source\PSoC4/UART_PC_UART.c **** 
 581:Generated_Source\PSoC4/UART_PC_UART.c ****             /* Enables interrupt to receive more bytes. */
 582:Generated_Source\PSoC4/UART_PC_UART.c ****             #if (UART_PC_CHECK_RX_SW_BUFFER)
 583:Generated_Source\PSoC4/UART_PC_UART.c ****             {
 584:Generated_Source\PSoC4/UART_PC_UART.c **** 
 585:Generated_Source\PSoC4/UART_PC_UART.c ****                 /* The byte has been read from RX FIFO. Clear RX interrupt to
 586:Generated_Source\PSoC4/UART_PC_UART.c ****                 * not involve interrupt handler when RX FIFO is empty.
 587:Generated_Source\PSoC4/UART_PC_UART.c ****                 */
 588:Generated_Source\PSoC4/UART_PC_UART.c ****                 UART_PC_ClearRxInterruptSource(UART_PC_INTR_RX_NOT_EMPTY);
 589:Generated_Source\PSoC4/UART_PC_UART.c **** 
 590:Generated_Source\PSoC4/UART_PC_UART.c ****                 UART_PC_EnableInt();
 591:Generated_Source\PSoC4/UART_PC_UART.c ****             }
 592:Generated_Source\PSoC4/UART_PC_UART.c ****             #endif
 593:Generated_Source\PSoC4/UART_PC_UART.c ****         }
 594:Generated_Source\PSoC4/UART_PC_UART.c **** 
 595:Generated_Source\PSoC4/UART_PC_UART.c ****         /* Get and clear RX error mask */
 596:Generated_Source\PSoC4/UART_PC_UART.c ****         tmpStatus = (UART_PC_GetRxInterruptSource() & UART_PC_INTR_RX_ERR);
 390              		.loc 1 596 0
 391 0014 064A     		ldr	r2, .L25+4
 392 0016 1368     		ldr	r3, [r2]
 393              	.LVL24:
 597:Generated_Source\PSoC4/UART_PC_UART.c ****         UART_PC_ClearRxInterruptSource(UART_PC_INTR_RX_ERR);
 394              		.loc 1 597 0
 395 0018 D821     		movs	r1, #216
 396 001a 8900     		lsls	r1, r1, #2
 397 001c 1160     		str	r1, [r2]
 598:Generated_Source\PSoC4/UART_PC_UART.c **** 
 599:Generated_Source\PSoC4/UART_PC_UART.c ****         /* Puts together data and error status:
 600:Generated_Source\PSoC4/UART_PC_UART.c ****         * MP mode and accept address: 9th bit is set to notify mark.
 601:Generated_Source\PSoC4/UART_PC_UART.c ****         */
 602:Generated_Source\PSoC4/UART_PC_UART.c ****         rxData |= ((uint32) (tmpStatus << 8u));
 398              		.loc 1 602 0
 399 001e 1B02     		lsls	r3, r3, #8
 400              	.LVL25:
 401 0020 D822     		movs	r2, #216
 402 0022 9202     		lsls	r2, r2, #10
 403 0024 1340     		ands	r3, r2
 404 0026 1843     		orrs	r0, r3
 405              	.LVL26:
 603:Generated_Source\PSoC4/UART_PC_UART.c **** 
 604:Generated_Source\PSoC4/UART_PC_UART.c ****         return (rxData);
 605:Generated_Source\PSoC4/UART_PC_UART.c ****     }
 406              		.loc 1 605 0
 407              		@ sp needed
 408 0028 10BD     		pop	{r4, pc}
 409              	.L26:
 410 002a C046     		.align	2
 411              	.L25:
 412 002c 40030840 		.word	1074266944
 413 0030 C00F0840 		.word	1074270144
 414              		.cfi_endproc
 415              	.LFE7:
 416              		.size	UART_PC_UartGetByte, .-UART_PC_UartGetByte
 417              		.section	.text.UART_PC_UartSetRtsPolarity,"ax",%progbits
 418              		.align	2
 419              		.global	UART_PC_UartSetRtsPolarity
ARM GAS  C:\Users\GCRIST~1\AppData\Local\Temp\cc4spGaH.s 			page 19


 420              		.code	16
 421              		.thumb_func
 422              		.type	UART_PC_UartSetRtsPolarity, %function
 423              	UART_PC_UartSetRtsPolarity:
 424              	.LFB8:
 606:Generated_Source\PSoC4/UART_PC_UART.c **** 
 607:Generated_Source\PSoC4/UART_PC_UART.c **** 
 608:Generated_Source\PSoC4/UART_PC_UART.c ****     #if !(UART_PC_CY_SCBIP_V0 || UART_PC_CY_SCBIP_V1)
 609:Generated_Source\PSoC4/UART_PC_UART.c ****         /*******************************************************************************
 610:Generated_Source\PSoC4/UART_PC_UART.c ****         * Function Name: UART_PC_UartSetRtsPolarity
 611:Generated_Source\PSoC4/UART_PC_UART.c ****         ****************************************************************************//**
 612:Generated_Source\PSoC4/UART_PC_UART.c ****         *
 613:Generated_Source\PSoC4/UART_PC_UART.c ****         *  Sets active polarity of RTS output signal.
 614:Generated_Source\PSoC4/UART_PC_UART.c ****         *  Only available for PSoC 4100 BLE / PSoC 4200 BLE / PSoC 4100M / PSoC 4200M /
 615:Generated_Source\PSoC4/UART_PC_UART.c ****         *  PSoC 4200L / PSoC 4000S / PSoC 4100S / PSoC Analog Coprocessor devices.
 616:Generated_Source\PSoC4/UART_PC_UART.c ****         *
 617:Generated_Source\PSoC4/UART_PC_UART.c ****         *  \param polarity: Active polarity of RTS output signal.
 618:Generated_Source\PSoC4/UART_PC_UART.c ****         *   - UART_PC_UART_RTS_ACTIVE_LOW  - RTS signal is active low.
 619:Generated_Source\PSoC4/UART_PC_UART.c ****         *   - UART_PC_UART_RTS_ACTIVE_HIGH - RTS signal is active high.
 620:Generated_Source\PSoC4/UART_PC_UART.c ****         *
 621:Generated_Source\PSoC4/UART_PC_UART.c ****         *******************************************************************************/
 622:Generated_Source\PSoC4/UART_PC_UART.c ****         void UART_PC_UartSetRtsPolarity(uint32 polarity)
 623:Generated_Source\PSoC4/UART_PC_UART.c ****         {
 425              		.loc 1 623 0
 426              		.cfi_startproc
 427              		@ args = 0, pretend = 0, frame = 0
 428              		@ frame_needed = 0, uses_anonymous_args = 0
 429              		@ link register save eliminated.
 430              	.LVL27:
 624:Generated_Source\PSoC4/UART_PC_UART.c ****             if(0u != polarity)
 431              		.loc 1 624 0
 432 0000 0028     		cmp	r0, #0
 433 0002 06D0     		beq	.L28
 625:Generated_Source\PSoC4/UART_PC_UART.c ****             {
 626:Generated_Source\PSoC4/UART_PC_UART.c ****                 UART_PC_UART_FLOW_CTRL_REG |= (uint32)  UART_PC_UART_FLOW_CTRL_RTS_POLARITY;
 434              		.loc 1 626 0
 435 0004 064A     		ldr	r2, .L30
 436 0006 1368     		ldr	r3, [r2]
 437 0008 8021     		movs	r1, #128
 438 000a 4902     		lsls	r1, r1, #9
 439 000c 0B43     		orrs	r3, r1
 440 000e 1360     		str	r3, [r2]
 441 0010 04E0     		b	.L27
 442              	.L28:
 627:Generated_Source\PSoC4/UART_PC_UART.c ****             }
 628:Generated_Source\PSoC4/UART_PC_UART.c ****             else
 629:Generated_Source\PSoC4/UART_PC_UART.c ****             {
 630:Generated_Source\PSoC4/UART_PC_UART.c ****                 UART_PC_UART_FLOW_CTRL_REG &= (uint32) ~UART_PC_UART_FLOW_CTRL_RTS_POLARITY;
 443              		.loc 1 630 0
 444 0012 034A     		ldr	r2, .L30
 445 0014 1168     		ldr	r1, [r2]
 446 0016 034B     		ldr	r3, .L30+4
 447 0018 0B40     		ands	r3, r1
 448 001a 1360     		str	r3, [r2]
 449              	.L27:
 631:Generated_Source\PSoC4/UART_PC_UART.c ****             }
 632:Generated_Source\PSoC4/UART_PC_UART.c ****         }
ARM GAS  C:\Users\GCRIST~1\AppData\Local\Temp\cc4spGaH.s 			page 20


 450              		.loc 1 632 0
 451              		@ sp needed
 452 001c 7047     		bx	lr
 453              	.L31:
 454 001e C046     		.align	2
 455              	.L30:
 456 0020 50000840 		.word	1074266192
 457 0024 FFFFFEFF 		.word	-65537
 458              		.cfi_endproc
 459              	.LFE8:
 460              		.size	UART_PC_UartSetRtsPolarity, .-UART_PC_UartSetRtsPolarity
 461              		.section	.text.UART_PC_UartSetRtsFifoLevel,"ax",%progbits
 462              		.align	2
 463              		.global	UART_PC_UartSetRtsFifoLevel
 464              		.code	16
 465              		.thumb_func
 466              		.type	UART_PC_UartSetRtsFifoLevel, %function
 467              	UART_PC_UartSetRtsFifoLevel:
 468              	.LFB9:
 633:Generated_Source\PSoC4/UART_PC_UART.c **** 
 634:Generated_Source\PSoC4/UART_PC_UART.c **** 
 635:Generated_Source\PSoC4/UART_PC_UART.c ****         /*******************************************************************************
 636:Generated_Source\PSoC4/UART_PC_UART.c ****         * Function Name: UART_PC_UartSetRtsFifoLevel
 637:Generated_Source\PSoC4/UART_PC_UART.c ****         ****************************************************************************//**
 638:Generated_Source\PSoC4/UART_PC_UART.c ****         *
 639:Generated_Source\PSoC4/UART_PC_UART.c ****         *  Sets level in the RX FIFO for RTS signal activation.
 640:Generated_Source\PSoC4/UART_PC_UART.c ****         *  While the RX FIFO has fewer entries than the RX FIFO level the RTS signal
 641:Generated_Source\PSoC4/UART_PC_UART.c ****         *  remains active, otherwise the RTS signal becomes inactive.
 642:Generated_Source\PSoC4/UART_PC_UART.c ****         *  Only available for PSoC 4100 BLE / PSoC 4200 BLE / PSoC 4100M / PSoC 4200M /
 643:Generated_Source\PSoC4/UART_PC_UART.c ****         *  PSoC 4200L / PSoC 4000S / PSoC 4100S / PSoC Analog Coprocessor devices.
 644:Generated_Source\PSoC4/UART_PC_UART.c ****         *
 645:Generated_Source\PSoC4/UART_PC_UART.c ****         *  \param level: Level in the RX FIFO for RTS signal activation.
 646:Generated_Source\PSoC4/UART_PC_UART.c ****         *   The range of valid level values is between 0 and RX FIFO depth - 1.
 647:Generated_Source\PSoC4/UART_PC_UART.c ****         *   Setting level value to 0 disables RTS signal activation.
 648:Generated_Source\PSoC4/UART_PC_UART.c ****         *
 649:Generated_Source\PSoC4/UART_PC_UART.c ****         *******************************************************************************/
 650:Generated_Source\PSoC4/UART_PC_UART.c ****         void UART_PC_UartSetRtsFifoLevel(uint32 level)
 651:Generated_Source\PSoC4/UART_PC_UART.c ****         {
 469              		.loc 1 651 0
 470              		.cfi_startproc
 471              		@ args = 0, pretend = 0, frame = 0
 472              		@ frame_needed = 0, uses_anonymous_args = 0
 473              		@ link register save eliminated.
 474              	.LVL28:
 652:Generated_Source\PSoC4/UART_PC_UART.c ****             uint32 uartFlowCtrl;
 653:Generated_Source\PSoC4/UART_PC_UART.c **** 
 654:Generated_Source\PSoC4/UART_PC_UART.c ****             uartFlowCtrl = UART_PC_UART_FLOW_CTRL_REG;
 475              		.loc 1 654 0
 476 0000 034A     		ldr	r2, .L33
 477 0002 1368     		ldr	r3, [r2]
 478              	.LVL29:
 655:Generated_Source\PSoC4/UART_PC_UART.c **** 
 656:Generated_Source\PSoC4/UART_PC_UART.c ****             uartFlowCtrl &= ((uint32) ~UART_PC_UART_FLOW_CTRL_TRIGGER_LEVEL_MASK); /* Clear level m
 479              		.loc 1 656 0
 480 0004 0F21     		movs	r1, #15
 481 0006 8B43     		bics	r3, r1
 482              	.LVL30:
ARM GAS  C:\Users\GCRIST~1\AppData\Local\Temp\cc4spGaH.s 			page 21


 657:Generated_Source\PSoC4/UART_PC_UART.c ****             uartFlowCtrl |= ((uint32) (UART_PC_UART_FLOW_CTRL_TRIGGER_LEVEL_MASK & level));
 483              		.loc 1 657 0
 484 0008 0840     		ands	r0, r1
 485              	.LVL31:
 486 000a 1843     		orrs	r0, r3
 487              	.LVL32:
 658:Generated_Source\PSoC4/UART_PC_UART.c **** 
 659:Generated_Source\PSoC4/UART_PC_UART.c ****             UART_PC_UART_FLOW_CTRL_REG = uartFlowCtrl;
 488              		.loc 1 659 0
 489 000c 1060     		str	r0, [r2]
 660:Generated_Source\PSoC4/UART_PC_UART.c ****         }
 490              		.loc 1 660 0
 491              		@ sp needed
 492 000e 7047     		bx	lr
 493              	.L34:
 494              		.align	2
 495              	.L33:
 496 0010 50000840 		.word	1074266192
 497              		.cfi_endproc
 498              	.LFE9:
 499              		.size	UART_PC_UartSetRtsFifoLevel, .-UART_PC_UartSetRtsFifoLevel
 500              		.section	.text.UART_PC_UartPutString,"ax",%progbits
 501              		.align	2
 502              		.global	UART_PC_UartPutString
 503              		.code	16
 504              		.thumb_func
 505              		.type	UART_PC_UartPutString, %function
 506              	UART_PC_UartPutString:
 507              	.LFB10:
 661:Generated_Source\PSoC4/UART_PC_UART.c ****     #endif /* !(UART_PC_CY_SCBIP_V0 || UART_PC_CY_SCBIP_V1) */
 662:Generated_Source\PSoC4/UART_PC_UART.c **** 
 663:Generated_Source\PSoC4/UART_PC_UART.c **** #endif /* (UART_PC_UART_RX_DIRECTION) */
 664:Generated_Source\PSoC4/UART_PC_UART.c **** 
 665:Generated_Source\PSoC4/UART_PC_UART.c **** 
 666:Generated_Source\PSoC4/UART_PC_UART.c **** #if(UART_PC_UART_TX_DIRECTION)
 667:Generated_Source\PSoC4/UART_PC_UART.c ****     /*******************************************************************************
 668:Generated_Source\PSoC4/UART_PC_UART.c ****     * Function Name: UART_PC_UartPutString
 669:Generated_Source\PSoC4/UART_PC_UART.c ****     ****************************************************************************//**
 670:Generated_Source\PSoC4/UART_PC_UART.c ****     *
 671:Generated_Source\PSoC4/UART_PC_UART.c ****     *  Places a NULL terminated string in the transmit buffer to be sent at the
 672:Generated_Source\PSoC4/UART_PC_UART.c ****     *  next available bus time.
 673:Generated_Source\PSoC4/UART_PC_UART.c ****     *  This function is blocking and waits until there is a space available to put
 674:Generated_Source\PSoC4/UART_PC_UART.c ****     *  requested data in transmit buffer.
 675:Generated_Source\PSoC4/UART_PC_UART.c ****     *
 676:Generated_Source\PSoC4/UART_PC_UART.c ****     *  \param string: pointer to the null terminated string array to be placed in the
 677:Generated_Source\PSoC4/UART_PC_UART.c ****     *   transmit buffer.
 678:Generated_Source\PSoC4/UART_PC_UART.c ****     *
 679:Generated_Source\PSoC4/UART_PC_UART.c ****     *******************************************************************************/
 680:Generated_Source\PSoC4/UART_PC_UART.c ****     void UART_PC_UartPutString(const char8 string[])
 681:Generated_Source\PSoC4/UART_PC_UART.c ****     {
 508              		.loc 1 681 0
 509              		.cfi_startproc
 510              		@ args = 0, pretend = 0, frame = 0
 511              		@ frame_needed = 0, uses_anonymous_args = 0
 512              	.LVL33:
 513 0000 70B5     		push	{r4, r5, r6, lr}
 514              		.cfi_def_cfa_offset 16
ARM GAS  C:\Users\GCRIST~1\AppData\Local\Temp\cc4spGaH.s 			page 22


 515              		.cfi_offset 4, -16
 516              		.cfi_offset 5, -12
 517              		.cfi_offset 6, -8
 518              		.cfi_offset 14, -4
 519 0002 0500     		movs	r5, r0
 520              	.LVL34:
 682:Generated_Source\PSoC4/UART_PC_UART.c ****         uint32 bufIndex;
 683:Generated_Source\PSoC4/UART_PC_UART.c **** 
 684:Generated_Source\PSoC4/UART_PC_UART.c ****         bufIndex = 0u;
 521              		.loc 1 684 0
 522 0004 0024     		movs	r4, #0
 685:Generated_Source\PSoC4/UART_PC_UART.c **** 
 686:Generated_Source\PSoC4/UART_PC_UART.c ****         /* Blocks the control flow until all data has been sent */
 687:Generated_Source\PSoC4/UART_PC_UART.c ****         while(string[bufIndex] != ((char8) 0))
 523              		.loc 1 687 0
 524 0006 02E0     		b	.L36
 525              	.LVL35:
 526              	.L37:
 688:Generated_Source\PSoC4/UART_PC_UART.c ****         {
 689:Generated_Source\PSoC4/UART_PC_UART.c ****             UART_PC_UartPutChar((uint32) string[bufIndex]);
 527              		.loc 1 689 0
 528 0008 FFF7FEFF 		bl	UART_PC_SpiUartWriteTxData
 529              	.LVL36:
 690:Generated_Source\PSoC4/UART_PC_UART.c ****             bufIndex++;
 530              		.loc 1 690 0
 531 000c 0134     		adds	r4, r4, #1
 532              	.LVL37:
 533              	.L36:
 687:Generated_Source\PSoC4/UART_PC_UART.c ****         {
 534              		.loc 1 687 0
 535 000e 285D     		ldrb	r0, [r5, r4]
 536 0010 0028     		cmp	r0, #0
 537 0012 F9D1     		bne	.L37
 691:Generated_Source\PSoC4/UART_PC_UART.c ****         }
 692:Generated_Source\PSoC4/UART_PC_UART.c ****     }
 538              		.loc 1 692 0
 539              		@ sp needed
 540              	.LVL38:
 541              	.LVL39:
 542 0014 70BD     		pop	{r4, r5, r6, pc}
 543              		.cfi_endproc
 544              	.LFE10:
 545              		.size	UART_PC_UartPutString, .-UART_PC_UartPutString
 546 0016 C046     		.section	.text.UART_PC_UartPutCRLF,"ax",%progbits
 547              		.align	2
 548              		.global	UART_PC_UartPutCRLF
 549              		.code	16
 550              		.thumb_func
 551              		.type	UART_PC_UartPutCRLF, %function
 552              	UART_PC_UartPutCRLF:
 553              	.LFB11:
 693:Generated_Source\PSoC4/UART_PC_UART.c **** 
 694:Generated_Source\PSoC4/UART_PC_UART.c **** 
 695:Generated_Source\PSoC4/UART_PC_UART.c ****     /*******************************************************************************
 696:Generated_Source\PSoC4/UART_PC_UART.c ****     * Function Name: UART_PC_UartPutCRLF
 697:Generated_Source\PSoC4/UART_PC_UART.c ****     ****************************************************************************//**
 698:Generated_Source\PSoC4/UART_PC_UART.c ****     *
ARM GAS  C:\Users\GCRIST~1\AppData\Local\Temp\cc4spGaH.s 			page 23


 699:Generated_Source\PSoC4/UART_PC_UART.c ****     *  Places byte of data followed by a carriage return (0x0D) and line feed
 700:Generated_Source\PSoC4/UART_PC_UART.c ****     *  (0x0A) in the transmit buffer.
 701:Generated_Source\PSoC4/UART_PC_UART.c ****     *  This function is blocking and waits until there is a space available to put
 702:Generated_Source\PSoC4/UART_PC_UART.c ****     *  all requested data in transmit buffer.
 703:Generated_Source\PSoC4/UART_PC_UART.c ****     *
 704:Generated_Source\PSoC4/UART_PC_UART.c ****     *  \param txDataByte: the data to be transmitted.
 705:Generated_Source\PSoC4/UART_PC_UART.c ****     *
 706:Generated_Source\PSoC4/UART_PC_UART.c ****     *******************************************************************************/
 707:Generated_Source\PSoC4/UART_PC_UART.c ****     void UART_PC_UartPutCRLF(uint32 txDataByte)
 708:Generated_Source\PSoC4/UART_PC_UART.c ****     {
 554              		.loc 1 708 0
 555              		.cfi_startproc
 556              		@ args = 0, pretend = 0, frame = 0
 557              		@ frame_needed = 0, uses_anonymous_args = 0
 558              	.LVL40:
 559 0000 10B5     		push	{r4, lr}
 560              		.cfi_def_cfa_offset 8
 561              		.cfi_offset 4, -8
 562              		.cfi_offset 14, -4
 709:Generated_Source\PSoC4/UART_PC_UART.c ****         UART_PC_UartPutChar(txDataByte);  /* Blocks control flow until all data has been sent */
 563              		.loc 1 709 0
 564 0002 FFF7FEFF 		bl	UART_PC_SpiUartWriteTxData
 565              	.LVL41:
 710:Generated_Source\PSoC4/UART_PC_UART.c ****         UART_PC_UartPutChar(0x0Du);       /* Blocks control flow until all data has been sent */
 566              		.loc 1 710 0
 567 0006 0D20     		movs	r0, #13
 568 0008 FFF7FEFF 		bl	UART_PC_SpiUartWriteTxData
 569              	.LVL42:
 711:Generated_Source\PSoC4/UART_PC_UART.c ****         UART_PC_UartPutChar(0x0Au);       /* Blocks control flow until all data has been sent */
 570              		.loc 1 711 0
 571 000c 0A20     		movs	r0, #10
 572 000e FFF7FEFF 		bl	UART_PC_SpiUartWriteTxData
 573              	.LVL43:
 712:Generated_Source\PSoC4/UART_PC_UART.c ****     }
 574              		.loc 1 712 0
 575              		@ sp needed
 576 0012 10BD     		pop	{r4, pc}
 577              		.cfi_endproc
 578              	.LFE11:
 579              		.size	UART_PC_UartPutCRLF, .-UART_PC_UartPutCRLF
 580              		.section	.text.UART_PC_UartEnableCts,"ax",%progbits
 581              		.align	2
 582              		.global	UART_PC_UartEnableCts
 583              		.code	16
 584              		.thumb_func
 585              		.type	UART_PC_UartEnableCts, %function
 586              	UART_PC_UartEnableCts:
 587              	.LFB12:
 713:Generated_Source\PSoC4/UART_PC_UART.c **** 
 714:Generated_Source\PSoC4/UART_PC_UART.c **** 
 715:Generated_Source\PSoC4/UART_PC_UART.c ****     #if !(UART_PC_CY_SCBIP_V0 || UART_PC_CY_SCBIP_V1)
 716:Generated_Source\PSoC4/UART_PC_UART.c ****         /*******************************************************************************
 717:Generated_Source\PSoC4/UART_PC_UART.c ****         * Function Name: UART_PCSCB_UartEnableCts
 718:Generated_Source\PSoC4/UART_PC_UART.c ****         ****************************************************************************//**
 719:Generated_Source\PSoC4/UART_PC_UART.c ****         *
 720:Generated_Source\PSoC4/UART_PC_UART.c ****         *  Enables usage of CTS input signal by the UART transmitter.
 721:Generated_Source\PSoC4/UART_PC_UART.c ****         *  Only available for PSoC 4100 BLE / PSoC 4200 BLE / PSoC 4100M / PSoC 4200M /
ARM GAS  C:\Users\GCRIST~1\AppData\Local\Temp\cc4spGaH.s 			page 24


 722:Generated_Source\PSoC4/UART_PC_UART.c ****         *  PSoC 4200L / PSoC 4000S / PSoC 4100S / PSoC Analog Coprocessor devices.
 723:Generated_Source\PSoC4/UART_PC_UART.c ****         *
 724:Generated_Source\PSoC4/UART_PC_UART.c ****         *******************************************************************************/
 725:Generated_Source\PSoC4/UART_PC_UART.c ****         void UART_PC_UartEnableCts(void)
 726:Generated_Source\PSoC4/UART_PC_UART.c ****         {
 588              		.loc 1 726 0
 589              		.cfi_startproc
 590              		@ args = 0, pretend = 0, frame = 0
 591              		@ frame_needed = 0, uses_anonymous_args = 0
 592              		@ link register save eliminated.
 727:Generated_Source\PSoC4/UART_PC_UART.c ****             UART_PC_UART_FLOW_CTRL_REG |= (uint32)  UART_PC_UART_FLOW_CTRL_CTS_ENABLE;
 593              		.loc 1 727 0
 594 0000 034A     		ldr	r2, .L40
 595 0002 1368     		ldr	r3, [r2]
 596 0004 8021     		movs	r1, #128
 597 0006 8904     		lsls	r1, r1, #18
 598 0008 0B43     		orrs	r3, r1
 599 000a 1360     		str	r3, [r2]
 728:Generated_Source\PSoC4/UART_PC_UART.c ****         }
 600              		.loc 1 728 0
 601              		@ sp needed
 602 000c 7047     		bx	lr
 603              	.L41:
 604 000e C046     		.align	2
 605              	.L40:
 606 0010 50000840 		.word	1074266192
 607              		.cfi_endproc
 608              	.LFE12:
 609              		.size	UART_PC_UartEnableCts, .-UART_PC_UartEnableCts
 610              		.section	.text.UART_PC_UartDisableCts,"ax",%progbits
 611              		.align	2
 612              		.global	UART_PC_UartDisableCts
 613              		.code	16
 614              		.thumb_func
 615              		.type	UART_PC_UartDisableCts, %function
 616              	UART_PC_UartDisableCts:
 617              	.LFB13:
 729:Generated_Source\PSoC4/UART_PC_UART.c **** 
 730:Generated_Source\PSoC4/UART_PC_UART.c **** 
 731:Generated_Source\PSoC4/UART_PC_UART.c ****         /*******************************************************************************
 732:Generated_Source\PSoC4/UART_PC_UART.c ****         * Function Name: UART_PC_UartDisableCts
 733:Generated_Source\PSoC4/UART_PC_UART.c ****         ****************************************************************************//**
 734:Generated_Source\PSoC4/UART_PC_UART.c ****         *
 735:Generated_Source\PSoC4/UART_PC_UART.c ****         *  Disables usage of CTS input signal by the UART transmitter.
 736:Generated_Source\PSoC4/UART_PC_UART.c ****         *  Only available for PSoC 4100 BLE / PSoC 4200 BLE / PSoC 4100M / PSoC 4200M /
 737:Generated_Source\PSoC4/UART_PC_UART.c ****         *  PSoC 4200L / PSoC 4000S / PSoC 4100S / PSoC Analog Coprocessor devices.
 738:Generated_Source\PSoC4/UART_PC_UART.c ****         *
 739:Generated_Source\PSoC4/UART_PC_UART.c ****         *******************************************************************************/
 740:Generated_Source\PSoC4/UART_PC_UART.c ****         void UART_PC_UartDisableCts(void)
 741:Generated_Source\PSoC4/UART_PC_UART.c ****         {
 618              		.loc 1 741 0
 619              		.cfi_startproc
 620              		@ args = 0, pretend = 0, frame = 0
 621              		@ frame_needed = 0, uses_anonymous_args = 0
 622              		@ link register save eliminated.
 742:Generated_Source\PSoC4/UART_PC_UART.c ****             UART_PC_UART_FLOW_CTRL_REG &= (uint32) ~UART_PC_UART_FLOW_CTRL_CTS_ENABLE;
 623              		.loc 1 742 0
ARM GAS  C:\Users\GCRIST~1\AppData\Local\Temp\cc4spGaH.s 			page 25


 624 0000 024A     		ldr	r2, .L43
 625 0002 1168     		ldr	r1, [r2]
 626 0004 024B     		ldr	r3, .L43+4
 627 0006 0B40     		ands	r3, r1
 628 0008 1360     		str	r3, [r2]
 743:Generated_Source\PSoC4/UART_PC_UART.c ****         }
 629              		.loc 1 743 0
 630              		@ sp needed
 631 000a 7047     		bx	lr
 632              	.L44:
 633              		.align	2
 634              	.L43:
 635 000c 50000840 		.word	1074266192
 636 0010 FFFFFFFD 		.word	-33554433
 637              		.cfi_endproc
 638              	.LFE13:
 639              		.size	UART_PC_UartDisableCts, .-UART_PC_UartDisableCts
 640              		.section	.text.UART_PC_UartSetCtsPolarity,"ax",%progbits
 641              		.align	2
 642              		.global	UART_PC_UartSetCtsPolarity
 643              		.code	16
 644              		.thumb_func
 645              		.type	UART_PC_UartSetCtsPolarity, %function
 646              	UART_PC_UartSetCtsPolarity:
 647              	.LFB14:
 744:Generated_Source\PSoC4/UART_PC_UART.c **** 
 745:Generated_Source\PSoC4/UART_PC_UART.c **** 
 746:Generated_Source\PSoC4/UART_PC_UART.c ****         /*******************************************************************************
 747:Generated_Source\PSoC4/UART_PC_UART.c ****         * Function Name: UART_PC_UartSetCtsPolarity
 748:Generated_Source\PSoC4/UART_PC_UART.c ****         ****************************************************************************//**
 749:Generated_Source\PSoC4/UART_PC_UART.c ****         *
 750:Generated_Source\PSoC4/UART_PC_UART.c ****         *  Sets active polarity of CTS input signal.
 751:Generated_Source\PSoC4/UART_PC_UART.c ****         *  Only available for PSoC 4100 BLE / PSoC 4200 BLE / PSoC 4100M / PSoC 4200M /
 752:Generated_Source\PSoC4/UART_PC_UART.c ****         *  PSoC 4200L / PSoC 4000S / PSoC 4100S / PSoC Analog Coprocessor devices.
 753:Generated_Source\PSoC4/UART_PC_UART.c ****         *
 754:Generated_Source\PSoC4/UART_PC_UART.c ****         * \param
 755:Generated_Source\PSoC4/UART_PC_UART.c ****         * polarity: Active polarity of CTS output signal.
 756:Generated_Source\PSoC4/UART_PC_UART.c ****         *   - UART_PC_UART_CTS_ACTIVE_LOW  - CTS signal is active low.
 757:Generated_Source\PSoC4/UART_PC_UART.c ****         *   - UART_PC_UART_CTS_ACTIVE_HIGH - CTS signal is active high.
 758:Generated_Source\PSoC4/UART_PC_UART.c ****         *
 759:Generated_Source\PSoC4/UART_PC_UART.c ****         *******************************************************************************/
 760:Generated_Source\PSoC4/UART_PC_UART.c ****         void UART_PC_UartSetCtsPolarity(uint32 polarity)
 761:Generated_Source\PSoC4/UART_PC_UART.c ****         {
 648              		.loc 1 761 0
 649              		.cfi_startproc
 650              		@ args = 0, pretend = 0, frame = 0
 651              		@ frame_needed = 0, uses_anonymous_args = 0
 652              		@ link register save eliminated.
 653              	.LVL44:
 762:Generated_Source\PSoC4/UART_PC_UART.c ****             if (0u != polarity)
 654              		.loc 1 762 0
 655 0000 0028     		cmp	r0, #0
 656 0002 06D0     		beq	.L46
 763:Generated_Source\PSoC4/UART_PC_UART.c ****             {
 764:Generated_Source\PSoC4/UART_PC_UART.c ****                 UART_PC_UART_FLOW_CTRL_REG |= (uint32)  UART_PC_UART_FLOW_CTRL_CTS_POLARITY;
 657              		.loc 1 764 0
 658 0004 064A     		ldr	r2, .L48
ARM GAS  C:\Users\GCRIST~1\AppData\Local\Temp\cc4spGaH.s 			page 26


 659 0006 1368     		ldr	r3, [r2]
 660 0008 8021     		movs	r1, #128
 661 000a 4904     		lsls	r1, r1, #17
 662 000c 0B43     		orrs	r3, r1
 663 000e 1360     		str	r3, [r2]
 664 0010 04E0     		b	.L45
 665              	.L46:
 765:Generated_Source\PSoC4/UART_PC_UART.c ****             }
 766:Generated_Source\PSoC4/UART_PC_UART.c ****             else
 767:Generated_Source\PSoC4/UART_PC_UART.c ****             {
 768:Generated_Source\PSoC4/UART_PC_UART.c ****                 UART_PC_UART_FLOW_CTRL_REG &= (uint32) ~UART_PC_UART_FLOW_CTRL_CTS_POLARITY;
 666              		.loc 1 768 0
 667 0012 034A     		ldr	r2, .L48
 668 0014 1168     		ldr	r1, [r2]
 669 0016 034B     		ldr	r3, .L48+4
 670 0018 0B40     		ands	r3, r1
 671 001a 1360     		str	r3, [r2]
 672              	.L45:
 769:Generated_Source\PSoC4/UART_PC_UART.c ****             }
 770:Generated_Source\PSoC4/UART_PC_UART.c ****         }
 673              		.loc 1 770 0
 674              		@ sp needed
 675 001c 7047     		bx	lr
 676              	.L49:
 677 001e C046     		.align	2
 678              	.L48:
 679 0020 50000840 		.word	1074266192
 680 0024 FFFFFFFE 		.word	-16777217
 681              		.cfi_endproc
 682              	.LFE14:
 683              		.size	UART_PC_UartSetCtsPolarity, .-UART_PC_UartSetCtsPolarity
 684              		.section	.text.UART_PC_UartSendBreakBlocking,"ax",%progbits
 685              		.align	2
 686              		.global	UART_PC_UartSendBreakBlocking
 687              		.code	16
 688              		.thumb_func
 689              		.type	UART_PC_UartSendBreakBlocking, %function
 690              	UART_PC_UartSendBreakBlocking:
 691              	.LFB15:
 771:Generated_Source\PSoC4/UART_PC_UART.c ****     #endif /* !(UART_PC_CY_SCBIP_V0 || UART_PC_CY_SCBIP_V1) */
 772:Generated_Source\PSoC4/UART_PC_UART.c **** 
 773:Generated_Source\PSoC4/UART_PC_UART.c **** 
 774:Generated_Source\PSoC4/UART_PC_UART.c ****     /*******************************************************************************
 775:Generated_Source\PSoC4/UART_PC_UART.c ****     * Function Name: UART_PC_UartSendBreakBlocking
 776:Generated_Source\PSoC4/UART_PC_UART.c ****     ****************************************************************************//**
 777:Generated_Source\PSoC4/UART_PC_UART.c ****     *
 778:Generated_Source\PSoC4/UART_PC_UART.c ****     * Sends a break condition (logic low) of specified width on UART TX line.
 779:Generated_Source\PSoC4/UART_PC_UART.c ****     * Blocks until break is completed. Only call this function when UART TX FIFO
 780:Generated_Source\PSoC4/UART_PC_UART.c ****     * and shifter are empty.
 781:Generated_Source\PSoC4/UART_PC_UART.c ****     *
 782:Generated_Source\PSoC4/UART_PC_UART.c ****     * \param breakWidth
 783:Generated_Source\PSoC4/UART_PC_UART.c ****     * Width of break condition. Valid range is 4 to 16 bits.
 784:Generated_Source\PSoC4/UART_PC_UART.c ****     *
 785:Generated_Source\PSoC4/UART_PC_UART.c ****     * \note
 786:Generated_Source\PSoC4/UART_PC_UART.c ****     * Before sending break all UART TX interrupt sources are disabled. The state
 787:Generated_Source\PSoC4/UART_PC_UART.c ****     * of UART TX interrupt sources is restored before function returns.
 788:Generated_Source\PSoC4/UART_PC_UART.c ****     *
ARM GAS  C:\Users\GCRIST~1\AppData\Local\Temp\cc4spGaH.s 			page 27


 789:Generated_Source\PSoC4/UART_PC_UART.c ****     * \sideeffect
 790:Generated_Source\PSoC4/UART_PC_UART.c ****     * If this function is called while there is data in the TX FIFO or shifter that
 791:Generated_Source\PSoC4/UART_PC_UART.c ****     * data will be shifted out in packets the size of breakWidth.
 792:Generated_Source\PSoC4/UART_PC_UART.c ****     *
 793:Generated_Source\PSoC4/UART_PC_UART.c ****     *******************************************************************************/
 794:Generated_Source\PSoC4/UART_PC_UART.c ****     void UART_PC_UartSendBreakBlocking(uint32 breakWidth)
 795:Generated_Source\PSoC4/UART_PC_UART.c ****     {
 692              		.loc 1 795 0
 693              		.cfi_startproc
 694              		@ args = 0, pretend = 0, frame = 0
 695              		@ frame_needed = 0, uses_anonymous_args = 0
 696              	.LVL45:
 697 0000 70B5     		push	{r4, r5, r6, lr}
 698              		.cfi_def_cfa_offset 16
 699              		.cfi_offset 4, -16
 700              		.cfi_offset 5, -12
 701              		.cfi_offset 6, -8
 702              		.cfi_offset 14, -4
 703 0002 0300     		movs	r3, r0
 796:Generated_Source\PSoC4/UART_PC_UART.c ****         uint32 txCtrlReg;
 797:Generated_Source\PSoC4/UART_PC_UART.c ****         uint32 txIntrReg;
 798:Generated_Source\PSoC4/UART_PC_UART.c **** 
 799:Generated_Source\PSoC4/UART_PC_UART.c ****         /* Disable all UART TX interrupt source and clear UART TX Done history */
 800:Generated_Source\PSoC4/UART_PC_UART.c ****         txIntrReg = UART_PC_GetTxInterruptMode();
 704              		.loc 1 800 0
 705 0004 0F4A     		ldr	r2, .L52
 706 0006 1568     		ldr	r5, [r2]
 707              	.LVL46:
 801:Generated_Source\PSoC4/UART_PC_UART.c ****         UART_PC_SetTxInterruptMode(0u);
 708              		.loc 1 801 0
 709 0008 0024     		movs	r4, #0
 710 000a 1460     		str	r4, [r2]
 802:Generated_Source\PSoC4/UART_PC_UART.c ****         UART_PC_ClearTxInterruptSource(UART_PC_INTR_TX_UART_DONE);
 711              		.loc 1 802 0
 712 000c 8021     		movs	r1, #128
 713 000e 8900     		lsls	r1, r1, #2
 714 0010 0D4A     		ldr	r2, .L52+4
 715 0012 1160     		str	r1, [r2]
 803:Generated_Source\PSoC4/UART_PC_UART.c **** 
 804:Generated_Source\PSoC4/UART_PC_UART.c ****         /* Store TX CTRL configuration */
 805:Generated_Source\PSoC4/UART_PC_UART.c ****         txCtrlReg = UART_PC_TX_CTRL_REG;
 716              		.loc 1 805 0
 717 0014 0D4A     		ldr	r2, .L52+8
 718 0016 1668     		ldr	r6, [r2]
 719              	.LVL47:
 806:Generated_Source\PSoC4/UART_PC_UART.c **** 
 807:Generated_Source\PSoC4/UART_PC_UART.c ****         /* Set break width */
 808:Generated_Source\PSoC4/UART_PC_UART.c ****         UART_PC_TX_CTRL_REG = (UART_PC_TX_CTRL_REG & (uint32) ~UART_PC_TX_CTRL_DATA_WIDTH_MASK) |
 720              		.loc 1 808 0
 721 0018 1168     		ldr	r1, [r2]
 722 001a 0F20     		movs	r0, #15
 723              	.LVL48:
 724 001c 8143     		bics	r1, r0
 809:Generated_Source\PSoC4/UART_PC_UART.c ****                                         UART_PC_GET_TX_CTRL_DATA_WIDTH(breakWidth);
 725              		.loc 1 809 0
 726 001e 013B     		subs	r3, r3, #1
 727              	.LVL49:
ARM GAS  C:\Users\GCRIST~1\AppData\Local\Temp\cc4spGaH.s 			page 28


 728 0020 1840     		ands	r0, r3
 808:Generated_Source\PSoC4/UART_PC_UART.c ****                                         UART_PC_GET_TX_CTRL_DATA_WIDTH(breakWidth);
 729              		.loc 1 808 0
 730 0022 0843     		orrs	r0, r1
 731 0024 1060     		str	r0, [r2]
 810:Generated_Source\PSoC4/UART_PC_UART.c **** 
 811:Generated_Source\PSoC4/UART_PC_UART.c ****         /* Generate break */
 812:Generated_Source\PSoC4/UART_PC_UART.c ****         UART_PC_TX_FIFO_WR_REG = 0u;
 732              		.loc 1 812 0
 733 0026 0A4B     		ldr	r3, .L52+12
 734              	.LVL50:
 735 0028 1C60     		str	r4, [r3]
 736              	.L51:
 813:Generated_Source\PSoC4/UART_PC_UART.c **** 
 814:Generated_Source\PSoC4/UART_PC_UART.c ****         /* Wait for break completion */
 815:Generated_Source\PSoC4/UART_PC_UART.c ****         while (0u == (UART_PC_GetTxInterruptSource() & UART_PC_INTR_TX_UART_DONE))
 737              		.loc 1 815 0 discriminator 1
 738 002a 074B     		ldr	r3, .L52+4
 739 002c 1B68     		ldr	r3, [r3]
 740 002e 9B05     		lsls	r3, r3, #22
 741 0030 FBD5     		bpl	.L51
 816:Generated_Source\PSoC4/UART_PC_UART.c ****         {
 817:Generated_Source\PSoC4/UART_PC_UART.c ****         }
 818:Generated_Source\PSoC4/UART_PC_UART.c **** 
 819:Generated_Source\PSoC4/UART_PC_UART.c ****         /* Clear all UART TX interrupt sources to  */
 820:Generated_Source\PSoC4/UART_PC_UART.c ****         UART_PC_ClearTxInterruptSource(UART_PC_INTR_TX_ALL);
 742              		.loc 1 820 0
 743 0032 084A     		ldr	r2, .L52+16
 744 0034 044B     		ldr	r3, .L52+4
 745 0036 1A60     		str	r2, [r3]
 821:Generated_Source\PSoC4/UART_PC_UART.c **** 
 822:Generated_Source\PSoC4/UART_PC_UART.c ****         /* Restore TX interrupt sources and data width */
 823:Generated_Source\PSoC4/UART_PC_UART.c ****         UART_PC_TX_CTRL_REG = txCtrlReg;
 746              		.loc 1 823 0
 747 0038 044B     		ldr	r3, .L52+8
 748 003a 1E60     		str	r6, [r3]
 824:Generated_Source\PSoC4/UART_PC_UART.c ****         UART_PC_SetTxInterruptMode(txIntrReg);
 749              		.loc 1 824 0
 750 003c 014B     		ldr	r3, .L52
 751 003e 1D60     		str	r5, [r3]
 825:Generated_Source\PSoC4/UART_PC_UART.c ****     }
 752              		.loc 1 825 0
 753              		@ sp needed
 754              	.LVL51:
 755              	.LVL52:
 756 0040 70BD     		pop	{r4, r5, r6, pc}
 757              	.L53:
 758 0042 C046     		.align	2
 759              	.L52:
 760 0044 880F0840 		.word	1074270088
 761 0048 800F0840 		.word	1074270080
 762 004c 00020840 		.word	1074266624
 763 0050 40020840 		.word	1074266688
 764 0054 F3070000 		.word	2035
 765              		.cfi_endproc
 766              	.LFE15:
 767              		.size	UART_PC_UartSendBreakBlocking, .-UART_PC_UartSendBreakBlocking
ARM GAS  C:\Users\GCRIST~1\AppData\Local\Temp\cc4spGaH.s 			page 29


 768              		.text
 769              	.Letext0:
 770              		.file 2 "Generated_Source\\PSoC4/cytypes.h"
 771              		.file 3 "Generated_Source\\PSoC4/CyLib.h"
 772              		.file 4 "Generated_Source\\PSoC4\\UART_PC_SPI_UART.h"
 773              		.file 5 "Generated_Source\\PSoC4\\UART_PC_PVT.h"