ARM GAS  C:\Users\GCRIST~1\AppData\Local\Temp\ccwmPUbs.s 			page 1


   1              		.syntax unified
   2              		.cpu cortex-m0plus
   3              		.fpu softvfp
   4              		.eabi_attribute 20, 1
   5              		.eabi_attribute 21, 1
   6              		.eabi_attribute 23, 3
   7              		.eabi_attribute 24, 1
   8              		.eabi_attribute 25, 1
   9              		.eabi_attribute 26, 1
  10              		.eabi_attribute 30, 1
  11              		.eabi_attribute 34, 0
  12              		.eabi_attribute 18, 4
  13              		.thumb
  14              		.syntax unified
  15              		.file	"UART_PC_SCBCLK.c"
  16              		.text
  17              	.Ltext0:
  18              		.cfi_sections	.debug_frame
  19              		.section	.text.UART_PC_SCBCLK_StartEx,"ax",%progbits
  20              		.align	2
  21              		.global	UART_PC_SCBCLK_StartEx
  22              		.code	16
  23              		.thumb_func
  24              		.type	UART_PC_SCBCLK_StartEx, %function
  25              	UART_PC_SCBCLK_StartEx:
  26              	.LFB0:
  27              		.file 1 "Generated_Source\\PSoC4\\UART_PC_SCBCLK.c"
   1:Generated_Source\PSoC4/UART_PC_SCBCLK.c **** /*******************************************************************************
   2:Generated_Source\PSoC4/UART_PC_SCBCLK.c **** * File Name: UART_PC_SCBCLK.c
   3:Generated_Source\PSoC4/UART_PC_SCBCLK.c **** * Version 2.20
   4:Generated_Source\PSoC4/UART_PC_SCBCLK.c **** *
   5:Generated_Source\PSoC4/UART_PC_SCBCLK.c **** *  Description:
   6:Generated_Source\PSoC4/UART_PC_SCBCLK.c **** *   Provides system API for the clocking, interrupts and watchdog timer.
   7:Generated_Source\PSoC4/UART_PC_SCBCLK.c **** *
   8:Generated_Source\PSoC4/UART_PC_SCBCLK.c **** *  Note:
   9:Generated_Source\PSoC4/UART_PC_SCBCLK.c **** *   Documentation of the API's in this file is located in the
  10:Generated_Source\PSoC4/UART_PC_SCBCLK.c **** *   System Reference Guide provided with PSoC Creator.
  11:Generated_Source\PSoC4/UART_PC_SCBCLK.c **** *
  12:Generated_Source\PSoC4/UART_PC_SCBCLK.c **** ********************************************************************************
  13:Generated_Source\PSoC4/UART_PC_SCBCLK.c **** * Copyright 2008-2012, Cypress Semiconductor Corporation.  All rights reserved.
  14:Generated_Source\PSoC4/UART_PC_SCBCLK.c **** * You may use this file only in accordance with the license, terms, conditions,
  15:Generated_Source\PSoC4/UART_PC_SCBCLK.c **** * disclaimers, and limitations in the end user license agreement accompanying
  16:Generated_Source\PSoC4/UART_PC_SCBCLK.c **** * the software package with which this file was provided.
  17:Generated_Source\PSoC4/UART_PC_SCBCLK.c **** *******************************************************************************/
  18:Generated_Source\PSoC4/UART_PC_SCBCLK.c **** 
  19:Generated_Source\PSoC4/UART_PC_SCBCLK.c **** #include <cydevice_trm.h>
  20:Generated_Source\PSoC4/UART_PC_SCBCLK.c **** #include "UART_PC_SCBCLK.h"
  21:Generated_Source\PSoC4/UART_PC_SCBCLK.c **** 
  22:Generated_Source\PSoC4/UART_PC_SCBCLK.c **** #if defined CYREG_PERI_DIV_CMD
  23:Generated_Source\PSoC4/UART_PC_SCBCLK.c **** 
  24:Generated_Source\PSoC4/UART_PC_SCBCLK.c **** /*******************************************************************************
  25:Generated_Source\PSoC4/UART_PC_SCBCLK.c **** * Function Name: UART_PC_SCBCLK_StartEx
  26:Generated_Source\PSoC4/UART_PC_SCBCLK.c **** ********************************************************************************
  27:Generated_Source\PSoC4/UART_PC_SCBCLK.c **** *
  28:Generated_Source\PSoC4/UART_PC_SCBCLK.c **** * Summary:
  29:Generated_Source\PSoC4/UART_PC_SCBCLK.c **** *  Starts the clock, aligned to the specified running clock.
  30:Generated_Source\PSoC4/UART_PC_SCBCLK.c **** *
ARM GAS  C:\Users\GCRIST~1\AppData\Local\Temp\ccwmPUbs.s 			page 2


  31:Generated_Source\PSoC4/UART_PC_SCBCLK.c **** * Parameters:
  32:Generated_Source\PSoC4/UART_PC_SCBCLK.c **** *  alignClkDiv:  The divider to which phase alignment is performed when the
  33:Generated_Source\PSoC4/UART_PC_SCBCLK.c **** *    clock is started.
  34:Generated_Source\PSoC4/UART_PC_SCBCLK.c **** *
  35:Generated_Source\PSoC4/UART_PC_SCBCLK.c **** * Returns:
  36:Generated_Source\PSoC4/UART_PC_SCBCLK.c **** *  None
  37:Generated_Source\PSoC4/UART_PC_SCBCLK.c **** *
  38:Generated_Source\PSoC4/UART_PC_SCBCLK.c **** *******************************************************************************/
  39:Generated_Source\PSoC4/UART_PC_SCBCLK.c **** void UART_PC_SCBCLK_StartEx(uint32 alignClkDiv)
  40:Generated_Source\PSoC4/UART_PC_SCBCLK.c **** {
  28              		.loc 1 40 0
  29              		.cfi_startproc
  30              		@ args = 0, pretend = 0, frame = 0
  31              		@ frame_needed = 0, uses_anonymous_args = 0
  32              		@ link register save eliminated.
  33              	.LVL0:
  34              	.L2:
  41:Generated_Source\PSoC4/UART_PC_SCBCLK.c ****     /* Make sure any previous start command has finished. */
  42:Generated_Source\PSoC4/UART_PC_SCBCLK.c ****     while((UART_PC_SCBCLK_CMD_REG & UART_PC_SCBCLK_CMD_ENABLE_MASK) != 0u)
  35              		.loc 1 42 0 discriminator 1
  36 0000 8023     		movs	r3, #128
  37 0002 DB05     		lsls	r3, r3, #23
  38 0004 1B68     		ldr	r3, [r3]
  39 0006 002B     		cmp	r3, #0
  40 0008 FADB     		blt	.L2
  43:Generated_Source\PSoC4/UART_PC_SCBCLK.c ****     {
  44:Generated_Source\PSoC4/UART_PC_SCBCLK.c ****     }
  45:Generated_Source\PSoC4/UART_PC_SCBCLK.c ****     
  46:Generated_Source\PSoC4/UART_PC_SCBCLK.c ****     /* Specify the target divider and it's alignment divider, and enable. */
  47:Generated_Source\PSoC4/UART_PC_SCBCLK.c ****     UART_PC_SCBCLK_CMD_REG =
  48:Generated_Source\PSoC4/UART_PC_SCBCLK.c ****         ((uint32)UART_PC_SCBCLK__DIV_ID << UART_PC_SCBCLK_CMD_DIV_SHIFT)|
  49:Generated_Source\PSoC4/UART_PC_SCBCLK.c ****         (alignClkDiv << UART_PC_SCBCLK_CMD_PA_DIV_SHIFT) |
  41              		.loc 1 49 0
  42 000a 0002     		lsls	r0, r0, #8
  43              	.LVL1:
  44 000c 024B     		ldr	r3, .L3
  45 000e 1843     		orrs	r0, r3
  47:Generated_Source\PSoC4/UART_PC_SCBCLK.c ****         ((uint32)UART_PC_SCBCLK__DIV_ID << UART_PC_SCBCLK_CMD_DIV_SHIFT)|
  46              		.loc 1 47 0
  47 0010 8023     		movs	r3, #128
  48 0012 DB05     		lsls	r3, r3, #23
  49 0014 1860     		str	r0, [r3]
  50:Generated_Source\PSoC4/UART_PC_SCBCLK.c ****         (uint32)UART_PC_SCBCLK_CMD_ENABLE_MASK;
  51:Generated_Source\PSoC4/UART_PC_SCBCLK.c **** }
  50              		.loc 1 51 0
  51              		@ sp needed
  52 0016 7047     		bx	lr
  53              	.L4:
  54              		.align	2
  55              	.L3:
  56 0018 42000080 		.word	-2147483582
  57              		.cfi_endproc
  58              	.LFE0:
  59              		.size	UART_PC_SCBCLK_StartEx, .-UART_PC_SCBCLK_StartEx
  60              		.section	.text.UART_PC_SCBCLK_Stop,"ax",%progbits
  61              		.align	2
  62              		.global	UART_PC_SCBCLK_Stop
ARM GAS  C:\Users\GCRIST~1\AppData\Local\Temp\ccwmPUbs.s 			page 3


  63              		.code	16
  64              		.thumb_func
  65              		.type	UART_PC_SCBCLK_Stop, %function
  66              	UART_PC_SCBCLK_Stop:
  67              	.LFB1:
  52:Generated_Source\PSoC4/UART_PC_SCBCLK.c **** 
  53:Generated_Source\PSoC4/UART_PC_SCBCLK.c **** #else
  54:Generated_Source\PSoC4/UART_PC_SCBCLK.c **** 
  55:Generated_Source\PSoC4/UART_PC_SCBCLK.c **** /*******************************************************************************
  56:Generated_Source\PSoC4/UART_PC_SCBCLK.c **** * Function Name: UART_PC_SCBCLK_Start
  57:Generated_Source\PSoC4/UART_PC_SCBCLK.c **** ********************************************************************************
  58:Generated_Source\PSoC4/UART_PC_SCBCLK.c **** *
  59:Generated_Source\PSoC4/UART_PC_SCBCLK.c **** * Summary:
  60:Generated_Source\PSoC4/UART_PC_SCBCLK.c **** *  Starts the clock.
  61:Generated_Source\PSoC4/UART_PC_SCBCLK.c **** *
  62:Generated_Source\PSoC4/UART_PC_SCBCLK.c **** * Parameters:
  63:Generated_Source\PSoC4/UART_PC_SCBCLK.c **** *  None
  64:Generated_Source\PSoC4/UART_PC_SCBCLK.c **** *
  65:Generated_Source\PSoC4/UART_PC_SCBCLK.c **** * Returns:
  66:Generated_Source\PSoC4/UART_PC_SCBCLK.c **** *  None
  67:Generated_Source\PSoC4/UART_PC_SCBCLK.c **** *
  68:Generated_Source\PSoC4/UART_PC_SCBCLK.c **** *******************************************************************************/
  69:Generated_Source\PSoC4/UART_PC_SCBCLK.c **** 
  70:Generated_Source\PSoC4/UART_PC_SCBCLK.c **** void UART_PC_SCBCLK_Start(void)
  71:Generated_Source\PSoC4/UART_PC_SCBCLK.c **** {
  72:Generated_Source\PSoC4/UART_PC_SCBCLK.c ****     /* Set the bit to enable the clock. */
  73:Generated_Source\PSoC4/UART_PC_SCBCLK.c ****     UART_PC_SCBCLK_ENABLE_REG |= UART_PC_SCBCLK__ENABLE_MASK;
  74:Generated_Source\PSoC4/UART_PC_SCBCLK.c **** }
  75:Generated_Source\PSoC4/UART_PC_SCBCLK.c **** 
  76:Generated_Source\PSoC4/UART_PC_SCBCLK.c **** #endif /* CYREG_PERI_DIV_CMD */
  77:Generated_Source\PSoC4/UART_PC_SCBCLK.c **** 
  78:Generated_Source\PSoC4/UART_PC_SCBCLK.c **** 
  79:Generated_Source\PSoC4/UART_PC_SCBCLK.c **** /*******************************************************************************
  80:Generated_Source\PSoC4/UART_PC_SCBCLK.c **** * Function Name: UART_PC_SCBCLK_Stop
  81:Generated_Source\PSoC4/UART_PC_SCBCLK.c **** ********************************************************************************
  82:Generated_Source\PSoC4/UART_PC_SCBCLK.c **** *
  83:Generated_Source\PSoC4/UART_PC_SCBCLK.c **** * Summary:
  84:Generated_Source\PSoC4/UART_PC_SCBCLK.c **** *  Stops the clock and returns immediately. This API does not require the
  85:Generated_Source\PSoC4/UART_PC_SCBCLK.c **** *  source clock to be running but may return before the hardware is actually
  86:Generated_Source\PSoC4/UART_PC_SCBCLK.c **** *  disabled.
  87:Generated_Source\PSoC4/UART_PC_SCBCLK.c **** *
  88:Generated_Source\PSoC4/UART_PC_SCBCLK.c **** * Parameters:
  89:Generated_Source\PSoC4/UART_PC_SCBCLK.c **** *  None
  90:Generated_Source\PSoC4/UART_PC_SCBCLK.c **** *
  91:Generated_Source\PSoC4/UART_PC_SCBCLK.c **** * Returns:
  92:Generated_Source\PSoC4/UART_PC_SCBCLK.c **** *  None
  93:Generated_Source\PSoC4/UART_PC_SCBCLK.c **** *
  94:Generated_Source\PSoC4/UART_PC_SCBCLK.c **** *******************************************************************************/
  95:Generated_Source\PSoC4/UART_PC_SCBCLK.c **** void UART_PC_SCBCLK_Stop(void)
  96:Generated_Source\PSoC4/UART_PC_SCBCLK.c **** {
  68              		.loc 1 96 0
  69              		.cfi_startproc
  70              		@ args = 0, pretend = 0, frame = 0
  71              		@ frame_needed = 0, uses_anonymous_args = 0
  72              		@ link register save eliminated.
  73              	.L6:
  97:Generated_Source\PSoC4/UART_PC_SCBCLK.c **** #if defined CYREG_PERI_DIV_CMD
ARM GAS  C:\Users\GCRIST~1\AppData\Local\Temp\ccwmPUbs.s 			page 4


  98:Generated_Source\PSoC4/UART_PC_SCBCLK.c **** 
  99:Generated_Source\PSoC4/UART_PC_SCBCLK.c ****     /* Make sure any previous start command has finished. */
 100:Generated_Source\PSoC4/UART_PC_SCBCLK.c ****     while((UART_PC_SCBCLK_CMD_REG & UART_PC_SCBCLK_CMD_ENABLE_MASK) != 0u)
  74              		.loc 1 100 0 discriminator 1
  75 0000 8023     		movs	r3, #128
  76 0002 DB05     		lsls	r3, r3, #23
  77 0004 1B68     		ldr	r3, [r3]
  78 0006 002B     		cmp	r3, #0
  79 0008 FADB     		blt	.L6
 101:Generated_Source\PSoC4/UART_PC_SCBCLK.c ****     {
 102:Generated_Source\PSoC4/UART_PC_SCBCLK.c ****     }
 103:Generated_Source\PSoC4/UART_PC_SCBCLK.c ****     
 104:Generated_Source\PSoC4/UART_PC_SCBCLK.c ****     /* Specify the target divider and it's alignment divider, and disable. */
 105:Generated_Source\PSoC4/UART_PC_SCBCLK.c ****     UART_PC_SCBCLK_CMD_REG =
  80              		.loc 1 105 0
  81 000a 024A     		ldr	r2, .L7
  82 000c 8023     		movs	r3, #128
  83 000e DB05     		lsls	r3, r3, #23
  84 0010 1A60     		str	r2, [r3]
 106:Generated_Source\PSoC4/UART_PC_SCBCLK.c ****         ((uint32)UART_PC_SCBCLK__DIV_ID << UART_PC_SCBCLK_CMD_DIV_SHIFT)|
 107:Generated_Source\PSoC4/UART_PC_SCBCLK.c ****         ((uint32)UART_PC_SCBCLK_CMD_DISABLE_MASK);
 108:Generated_Source\PSoC4/UART_PC_SCBCLK.c **** 
 109:Generated_Source\PSoC4/UART_PC_SCBCLK.c **** #else
 110:Generated_Source\PSoC4/UART_PC_SCBCLK.c **** 
 111:Generated_Source\PSoC4/UART_PC_SCBCLK.c ****     /* Clear the bit to disable the clock. */
 112:Generated_Source\PSoC4/UART_PC_SCBCLK.c ****     UART_PC_SCBCLK_ENABLE_REG &= (uint32)(~UART_PC_SCBCLK__ENABLE_MASK);
 113:Generated_Source\PSoC4/UART_PC_SCBCLK.c ****     
 114:Generated_Source\PSoC4/UART_PC_SCBCLK.c **** #endif /* CYREG_PERI_DIV_CMD */
 115:Generated_Source\PSoC4/UART_PC_SCBCLK.c **** }
  85              		.loc 1 115 0
  86              		@ sp needed
  87 0012 7047     		bx	lr
  88              	.L8:
  89              		.align	2
  90              	.L7:
  91 0014 42000040 		.word	1073741890
  92              		.cfi_endproc
  93              	.LFE1:
  94              		.size	UART_PC_SCBCLK_Stop, .-UART_PC_SCBCLK_Stop
  95              		.section	.text.UART_PC_SCBCLK_SetFractionalDividerRegister,"ax",%progbits
  96              		.align	2
  97              		.global	UART_PC_SCBCLK_SetFractionalDividerRegister
  98              		.code	16
  99              		.thumb_func
 100              		.type	UART_PC_SCBCLK_SetFractionalDividerRegister, %function
 101              	UART_PC_SCBCLK_SetFractionalDividerRegister:
 102              	.LFB2:
 116:Generated_Source\PSoC4/UART_PC_SCBCLK.c **** 
 117:Generated_Source\PSoC4/UART_PC_SCBCLK.c **** 
 118:Generated_Source\PSoC4/UART_PC_SCBCLK.c **** /*******************************************************************************
 119:Generated_Source\PSoC4/UART_PC_SCBCLK.c **** * Function Name: UART_PC_SCBCLK_SetFractionalDividerRegister
 120:Generated_Source\PSoC4/UART_PC_SCBCLK.c **** ********************************************************************************
 121:Generated_Source\PSoC4/UART_PC_SCBCLK.c **** *
 122:Generated_Source\PSoC4/UART_PC_SCBCLK.c **** * Summary:
 123:Generated_Source\PSoC4/UART_PC_SCBCLK.c **** *  Modifies the clock divider and the fractional divider.
 124:Generated_Source\PSoC4/UART_PC_SCBCLK.c **** *
 125:Generated_Source\PSoC4/UART_PC_SCBCLK.c **** * Parameters:
ARM GAS  C:\Users\GCRIST~1\AppData\Local\Temp\ccwmPUbs.s 			page 5


 126:Generated_Source\PSoC4/UART_PC_SCBCLK.c **** *  clkDivider:  Divider register value (0-65535). This value is NOT the
 127:Generated_Source\PSoC4/UART_PC_SCBCLK.c **** *    divider; the clock hardware divides by clkDivider plus one. For example,
 128:Generated_Source\PSoC4/UART_PC_SCBCLK.c **** *    to divide the clock by 2, this parameter should be set to 1.
 129:Generated_Source\PSoC4/UART_PC_SCBCLK.c **** *  fracDivider:  Fractional Divider register value (0-31).
 130:Generated_Source\PSoC4/UART_PC_SCBCLK.c **** * Returns:
 131:Generated_Source\PSoC4/UART_PC_SCBCLK.c **** *  None
 132:Generated_Source\PSoC4/UART_PC_SCBCLK.c **** *
 133:Generated_Source\PSoC4/UART_PC_SCBCLK.c **** *******************************************************************************/
 134:Generated_Source\PSoC4/UART_PC_SCBCLK.c **** void UART_PC_SCBCLK_SetFractionalDividerRegister(uint16 clkDivider, uint8 clkFractional)
 135:Generated_Source\PSoC4/UART_PC_SCBCLK.c **** {
 103              		.loc 1 135 0
 104              		.cfi_startproc
 105              		@ args = 0, pretend = 0, frame = 0
 106              		@ frame_needed = 0, uses_anonymous_args = 0
 107              	.LVL2:
 108 0000 10B5     		push	{r4, lr}
 109              		.cfi_def_cfa_offset 8
 110              		.cfi_offset 4, -8
 111              		.cfi_offset 14, -4
 136:Generated_Source\PSoC4/UART_PC_SCBCLK.c ****     uint32 maskVal;
 137:Generated_Source\PSoC4/UART_PC_SCBCLK.c ****     uint32 regVal;
 138:Generated_Source\PSoC4/UART_PC_SCBCLK.c ****     
 139:Generated_Source\PSoC4/UART_PC_SCBCLK.c **** #if defined (UART_PC_SCBCLK__FRAC_MASK) || defined (CYREG_PERI_DIV_CMD)
 140:Generated_Source\PSoC4/UART_PC_SCBCLK.c ****     
 141:Generated_Source\PSoC4/UART_PC_SCBCLK.c **** 	/* get all but divider bits */
 142:Generated_Source\PSoC4/UART_PC_SCBCLK.c ****     maskVal = UART_PC_SCBCLK_DIV_REG & 
 112              		.loc 1 142 0
 113 0002 064A     		ldr	r2, .L10
 114 0004 1368     		ldr	r3, [r2]
 115 0006 0724     		movs	r4, #7
 116 0008 2340     		ands	r3, r4
 117              	.LVL3:
 143:Generated_Source\PSoC4/UART_PC_SCBCLK.c ****                     (uint32)(~(uint32)(UART_PC_SCBCLK_DIV_INT_MASK | UART_PC_SCBCLK_DIV_FRAC_MASK))
 144:Generated_Source\PSoC4/UART_PC_SCBCLK.c **** 	/* combine mask and new divider vals into 32-bit value */
 145:Generated_Source\PSoC4/UART_PC_SCBCLK.c ****     regVal = maskVal |
 146:Generated_Source\PSoC4/UART_PC_SCBCLK.c ****         ((uint32)((uint32)clkDivider <<  UART_PC_SCBCLK_DIV_INT_SHIFT) & UART_PC_SCBCLK_DIV_INT_MAS
 118              		.loc 1 146 0
 119 000a 0002     		lsls	r0, r0, #8
 120              	.LVL4:
 145:Generated_Source\PSoC4/UART_PC_SCBCLK.c ****         ((uint32)((uint32)clkDivider <<  UART_PC_SCBCLK_DIV_INT_SHIFT) & UART_PC_SCBCLK_DIV_INT_MAS
 121              		.loc 1 145 0
 122 000c 1843     		orrs	r0, r3
 147:Generated_Source\PSoC4/UART_PC_SCBCLK.c ****         ((uint32)((uint32)clkFractional << UART_PC_SCBCLK_DIV_FRAC_SHIFT) & UART_PC_SCBCLK_DIV_FRAC
 123              		.loc 1 147 0
 124 000e CB00     		lsls	r3, r1, #3
 125              	.LVL5:
 126 0010 FF21     		movs	r1, #255
 127              	.LVL6:
 128 0012 1940     		ands	r1, r3
 145:Generated_Source\PSoC4/UART_PC_SCBCLK.c ****         ((uint32)((uint32)clkDivider <<  UART_PC_SCBCLK_DIV_INT_SHIFT) & UART_PC_SCBCLK_DIV_INT_MAS
 129              		.loc 1 145 0
 130 0014 0143     		orrs	r1, r0
 131              	.LVL7:
 148:Generated_Source\PSoC4/UART_PC_SCBCLK.c ****     
 149:Generated_Source\PSoC4/UART_PC_SCBCLK.c **** #else
 150:Generated_Source\PSoC4/UART_PC_SCBCLK.c ****     /* get all but integer divider bits */
 151:Generated_Source\PSoC4/UART_PC_SCBCLK.c ****     maskVal = UART_PC_SCBCLK_DIV_REG & (uint32)(~(uint32)UART_PC_SCBCLK__DIVIDER_MASK);
ARM GAS  C:\Users\GCRIST~1\AppData\Local\Temp\ccwmPUbs.s 			page 6


 152:Generated_Source\PSoC4/UART_PC_SCBCLK.c ****     /* combine mask and new divider val into 32-bit value */
 153:Generated_Source\PSoC4/UART_PC_SCBCLK.c ****     regVal = clkDivider | maskVal;
 154:Generated_Source\PSoC4/UART_PC_SCBCLK.c ****     
 155:Generated_Source\PSoC4/UART_PC_SCBCLK.c **** #endif /* UART_PC_SCBCLK__FRAC_MASK || CYREG_PERI_DIV_CMD */
 156:Generated_Source\PSoC4/UART_PC_SCBCLK.c **** 
 157:Generated_Source\PSoC4/UART_PC_SCBCLK.c ****     UART_PC_SCBCLK_DIV_REG = regVal;
 132              		.loc 1 157 0
 133 0016 1160     		str	r1, [r2]
 158:Generated_Source\PSoC4/UART_PC_SCBCLK.c **** }
 134              		.loc 1 158 0
 135              		@ sp needed
 136 0018 10BD     		pop	{r4, pc}
 137              	.L11:
 138 001a C046     		.align	2
 139              	.L10:
 140 001c 08030040 		.word	1073742600
 141              		.cfi_endproc
 142              	.LFE2:
 143              		.size	UART_PC_SCBCLK_SetFractionalDividerRegister, .-UART_PC_SCBCLK_SetFractionalDividerRegister
 144              		.section	.text.UART_PC_SCBCLK_GetDividerRegister,"ax",%progbits
 145              		.align	2
 146              		.global	UART_PC_SCBCLK_GetDividerRegister
 147              		.code	16
 148              		.thumb_func
 149              		.type	UART_PC_SCBCLK_GetDividerRegister, %function
 150              	UART_PC_SCBCLK_GetDividerRegister:
 151              	.LFB3:
 159:Generated_Source\PSoC4/UART_PC_SCBCLK.c **** 
 160:Generated_Source\PSoC4/UART_PC_SCBCLK.c **** 
 161:Generated_Source\PSoC4/UART_PC_SCBCLK.c **** /*******************************************************************************
 162:Generated_Source\PSoC4/UART_PC_SCBCLK.c **** * Function Name: UART_PC_SCBCLK_GetDividerRegister
 163:Generated_Source\PSoC4/UART_PC_SCBCLK.c **** ********************************************************************************
 164:Generated_Source\PSoC4/UART_PC_SCBCLK.c **** *
 165:Generated_Source\PSoC4/UART_PC_SCBCLK.c **** * Summary:
 166:Generated_Source\PSoC4/UART_PC_SCBCLK.c **** *  Gets the clock divider register value.
 167:Generated_Source\PSoC4/UART_PC_SCBCLK.c **** *
 168:Generated_Source\PSoC4/UART_PC_SCBCLK.c **** * Parameters:
 169:Generated_Source\PSoC4/UART_PC_SCBCLK.c **** *  None
 170:Generated_Source\PSoC4/UART_PC_SCBCLK.c **** *
 171:Generated_Source\PSoC4/UART_PC_SCBCLK.c **** * Returns:
 172:Generated_Source\PSoC4/UART_PC_SCBCLK.c **** *  Divide value of the clock minus 1. For example, if the clock is set to
 173:Generated_Source\PSoC4/UART_PC_SCBCLK.c **** *  divide by 2, the return value will be 1.
 174:Generated_Source\PSoC4/UART_PC_SCBCLK.c **** *
 175:Generated_Source\PSoC4/UART_PC_SCBCLK.c **** *******************************************************************************/
 176:Generated_Source\PSoC4/UART_PC_SCBCLK.c **** uint16 UART_PC_SCBCLK_GetDividerRegister(void)
 177:Generated_Source\PSoC4/UART_PC_SCBCLK.c **** {
 152              		.loc 1 177 0
 153              		.cfi_startproc
 154              		@ args = 0, pretend = 0, frame = 0
 155              		@ frame_needed = 0, uses_anonymous_args = 0
 156              		@ link register save eliminated.
 178:Generated_Source\PSoC4/UART_PC_SCBCLK.c ****     return (uint16)((UART_PC_SCBCLK_DIV_REG & UART_PC_SCBCLK_DIV_INT_MASK)
 157              		.loc 1 178 0
 158 0000 024B     		ldr	r3, .L13
 159 0002 1868     		ldr	r0, [r3]
 160 0004 000A     		lsrs	r0, r0, #8
 161 0006 80B2     		uxth	r0, r0
ARM GAS  C:\Users\GCRIST~1\AppData\Local\Temp\ccwmPUbs.s 			page 7


 179:Generated_Source\PSoC4/UART_PC_SCBCLK.c ****         >> UART_PC_SCBCLK_DIV_INT_SHIFT);
 180:Generated_Source\PSoC4/UART_PC_SCBCLK.c **** }
 162              		.loc 1 180 0
 163              		@ sp needed
 164 0008 7047     		bx	lr
 165              	.L14:
 166 000a C046     		.align	2
 167              	.L13:
 168 000c 08030040 		.word	1073742600
 169              		.cfi_endproc
 170              	.LFE3:
 171              		.size	UART_PC_SCBCLK_GetDividerRegister, .-UART_PC_SCBCLK_GetDividerRegister
 172              		.section	.text.UART_PC_SCBCLK_GetFractionalDividerRegister,"ax",%progbits
 173              		.align	2
 174              		.global	UART_PC_SCBCLK_GetFractionalDividerRegister
 175              		.code	16
 176              		.thumb_func
 177              		.type	UART_PC_SCBCLK_GetFractionalDividerRegister, %function
 178              	UART_PC_SCBCLK_GetFractionalDividerRegister:
 179              	.LFB4:
 181:Generated_Source\PSoC4/UART_PC_SCBCLK.c **** 
 182:Generated_Source\PSoC4/UART_PC_SCBCLK.c **** 
 183:Generated_Source\PSoC4/UART_PC_SCBCLK.c **** /*******************************************************************************
 184:Generated_Source\PSoC4/UART_PC_SCBCLK.c **** * Function Name: UART_PC_SCBCLK_GetFractionalDividerRegister
 185:Generated_Source\PSoC4/UART_PC_SCBCLK.c **** ********************************************************************************
 186:Generated_Source\PSoC4/UART_PC_SCBCLK.c **** *
 187:Generated_Source\PSoC4/UART_PC_SCBCLK.c **** * Summary:
 188:Generated_Source\PSoC4/UART_PC_SCBCLK.c **** *  Gets the clock fractional divider register value.
 189:Generated_Source\PSoC4/UART_PC_SCBCLK.c **** *
 190:Generated_Source\PSoC4/UART_PC_SCBCLK.c **** * Parameters:
 191:Generated_Source\PSoC4/UART_PC_SCBCLK.c **** *  None
 192:Generated_Source\PSoC4/UART_PC_SCBCLK.c **** *
 193:Generated_Source\PSoC4/UART_PC_SCBCLK.c **** * Returns:
 194:Generated_Source\PSoC4/UART_PC_SCBCLK.c **** *  Fractional Divide value of the clock
 195:Generated_Source\PSoC4/UART_PC_SCBCLK.c **** *  0 if the fractional divider is not in use.
 196:Generated_Source\PSoC4/UART_PC_SCBCLK.c **** *
 197:Generated_Source\PSoC4/UART_PC_SCBCLK.c **** *******************************************************************************/
 198:Generated_Source\PSoC4/UART_PC_SCBCLK.c **** uint8 UART_PC_SCBCLK_GetFractionalDividerRegister(void)
 199:Generated_Source\PSoC4/UART_PC_SCBCLK.c **** {
 180              		.loc 1 199 0
 181              		.cfi_startproc
 182              		@ args = 0, pretend = 0, frame = 0
 183              		@ frame_needed = 0, uses_anonymous_args = 0
 184              		@ link register save eliminated.
 200:Generated_Source\PSoC4/UART_PC_SCBCLK.c **** #if defined (UART_PC_SCBCLK__FRAC_MASK)
 201:Generated_Source\PSoC4/UART_PC_SCBCLK.c ****     /* return fractional divider bits */
 202:Generated_Source\PSoC4/UART_PC_SCBCLK.c ****     return (uint8)((UART_PC_SCBCLK_DIV_REG & UART_PC_SCBCLK_DIV_FRAC_MASK)
 203:Generated_Source\PSoC4/UART_PC_SCBCLK.c ****         >> UART_PC_SCBCLK_DIV_FRAC_SHIFT);
 204:Generated_Source\PSoC4/UART_PC_SCBCLK.c **** #else
 205:Generated_Source\PSoC4/UART_PC_SCBCLK.c ****     return 0u;
 206:Generated_Source\PSoC4/UART_PC_SCBCLK.c **** #endif /* UART_PC_SCBCLK__FRAC_MASK */
 207:Generated_Source\PSoC4/UART_PC_SCBCLK.c **** }
 185              		.loc 1 207 0
 186 0000 0020     		movs	r0, #0
 187              		@ sp needed
 188 0002 7047     		bx	lr
 189              		.cfi_endproc
ARM GAS  C:\Users\GCRIST~1\AppData\Local\Temp\ccwmPUbs.s 			page 8


 190              	.LFE4:
 191              		.size	UART_PC_SCBCLK_GetFractionalDividerRegister, .-UART_PC_SCBCLK_GetFractionalDividerRegister
 192              		.text
 193              	.Letext0:
 194              		.file 2 "Generated_Source\\PSoC4/cytypes.h"